Ensamblador de GNU versiÛn 2.27 (x86_64-redhat-linux)
	 utilizando BFD versiÛn version 2.27-34.base.el7.
 opciones pasadas	: --64 -adghln=assembler/RGB2YCbCr.gcc.s 
 fich entrada  	: /tmp/ccBtFdOu.s
 fich salida   	: RGB2YCbCr.o
 objetivo      	: x86_64-redhat-linux-gnu
 marca tiempo  	: 2020-03-31T19:43:51.000+0200

   1              		.file	"RGB2YCbCr.c"
   2              		.text
   3              	.Ltext0:
   4              		.section	.rodata.str1.8,"aMS",@progbits,1
   5              		.align 8
   6              	.LC0:
   7 0000 4552524F 		.string	"ERROR: input image has to be RGB"
   7      523A2069 
   7      6E707574 
   7      20696D61 
   7      67652068 
   8              		.section	.rodata.str1.1,"aMS",@progbits,1
   9              	.LC11:
  10 0000 52474232 		.string	"RGB2YCbCr_roundf0"
  10      59436243 
  10      725F726F 
  10      756E6466 
  10      3000
  11              		.text
  12              		.p2align 4
  13              		.globl	RGB2YCbCr_roundf0
  15              	RGB2YCbCr_roundf0:
  16              	.LFB14:
  17              		.file 1 "RGB2YCbCr.c"
   1:RGB2YCbCr.c   **** /* Conversi√≥n de imagen RGB a YCbCr
   2:RGB2YCbCr.c   ****  * (implementaciones varias para evaluar su rendimiento) */
   3:RGB2YCbCr.c   **** 
   4:RGB2YCbCr.c   **** /* https://en.wikipedia.org/wiki/YCbCr#JPEG_conversion
   5:RGB2YCbCr.c   ****  */
   6:RGB2YCbCr.c   **** 
   7:RGB2YCbCr.c   **** /* Jes√∫s Alastruey Bened√©
   8:RGB2YCbCr.c   ****  * v2.0, 12-marzo-2020
   9:RGB2YCbCr.c   ****  */
  10:RGB2YCbCr.c   **** 
  11:RGB2YCbCr.c   **** #define _POSIX_C_SOURCE 200112L     /* para evitar el aviso al compilar
  12:RGB2YCbCr.c   ****                                        con la funci√≥n posix_memalign() */
  13:RGB2YCbCr.c   **** #include <stdio.h>
  14:RGB2YCbCr.c   **** #include <stdlib.h>
  15:RGB2YCbCr.c   **** #include <time.h>
  16:RGB2YCbCr.c   **** #include <sys/time.h>
  17:RGB2YCbCr.c   **** #include <sys/times.h>
  18:RGB2YCbCr.c   **** #include <malloc.h>
  19:RGB2YCbCr.c   **** #include <math.h>
  20:RGB2YCbCr.c   **** #include "jpeg_handler.h"
  21:RGB2YCbCr.c   **** #include "include/jpeglib.h"
  22:RGB2YCbCr.c   **** #include "RGB2YCbCr.h"
  23:RGB2YCbCr.c   **** #include "misc.h"
  24:RGB2YCbCr.c   **** 
  25:RGB2YCbCr.c   **** 
  26:RGB2YCbCr.c   **** int dummy(image_t *im1, image_t *im2);
  27:RGB2YCbCr.c   **** //----------------------------------------------------------------------------
  28:RGB2YCbCr.c   **** 
  29:RGB2YCbCr.c   **** /* factores y desplazamientos para conversi√≥n RGB -> YCbCr */
  30:RGB2YCbCr.c   **** static const float
  31:RGB2YCbCr.c   **** RGB2YCbCr[3][3] = {
  32:RGB2YCbCr.c   ****    { 0.299,     0.587,     0.114    },
  33:RGB2YCbCr.c   ****    {-0.168736, -0.331264,  0.500    },
  34:RGB2YCbCr.c   ****    { 0.500,    -0.418688, -0.081312 }
  35:RGB2YCbCr.c   **** };
  36:RGB2YCbCr.c   **** static const float
  37:RGB2YCbCr.c   **** RGB2YCbCr_offset[3] = { 0.0,  128.0,  128.0 };
  38:RGB2YCbCr.c   **** 
  39:RGB2YCbCr.c   **** //----------------------------------------------------------------------------
  40:RGB2YCbCr.c   **** 
  41:RGB2YCbCr.c   **** void
  42:RGB2YCbCr.c   **** RGB2YCbCr_roundf0(image_t * image_in, image_t * image_out)
  43:RGB2YCbCr.c   **** {
  18              		.loc 1 43 1
  19              		.cfi_startproc
  20              	.LVL0:
  44:RGB2YCbCr.c   ****     double start_t, end_t;
  21              		.loc 1 44 5
  45:RGB2YCbCr.c   ****     const int height = image_in->height;
  22              		.loc 1 45 5
  43:RGB2YCbCr.c   ****     double start_t, end_t;
  23              		.loc 1 43 1 is_stmt 0
  24 0000 4157     		pushq	%r15
  25              		.cfi_def_cfa_offset 16
  26              		.cfi_offset 15, -16
  27 0002 4156     		pushq	%r14
  28              		.cfi_def_cfa_offset 24
  29              		.cfi_offset 14, -24
  30 0004 4155     		pushq	%r13
  31              		.cfi_def_cfa_offset 32
  32              		.cfi_offset 13, -32
  33 0006 4154     		pushq	%r12
  34              		.cfi_def_cfa_offset 40
  35              		.cfi_offset 12, -40
  36 0008 55       		pushq	%rbp
  37              		.cfi_def_cfa_offset 48
  38              		.cfi_offset 6, -48
  39 0009 53       		pushq	%rbx
  40              		.cfi_def_cfa_offset 56
  41              		.cfi_offset 3, -56
  42 000a 4883EC18 		subq	$24, %rsp
  43              		.cfi_def_cfa_offset 80
  46:RGB2YCbCr.c   ****     const int width =  image_in->width;
  47:RGB2YCbCr.c   **** 
  48:RGB2YCbCr.c   ****     if (image_in->bytes_per_pixel != 3)
  44              		.loc 1 48 8
  45 000e 837F1003 		cmpl	$3, 16(%rdi)
  45:RGB2YCbCr.c   ****     const int width =  image_in->width;
  46              		.loc 1 45 15
  47 0012 448B7F0C 		movl	12(%rdi), %r15d
  48              	.LVL1:
  46:RGB2YCbCr.c   ****     const int width =  image_in->width;
  49              		.loc 1 46 5 is_stmt 1
  46:RGB2YCbCr.c   ****     const int width =  image_in->width;
  50              		.loc 1 46 15 is_stmt 0
  51 0016 8B5F08   		movl	8(%rdi), %ebx
  52              	.LVL2:
  53              		.loc 1 48 5 is_stmt 1
  54              		.loc 1 48 8 is_stmt 0
  55 0019 0F85AE01 		jne	.L11
  55      0000
  49:RGB2YCbCr.c   ****     {
  50:RGB2YCbCr.c   ****         printf("ERROR: input image has to be RGB\n");
  51:RGB2YCbCr.c   ****         exit(-1);
  52:RGB2YCbCr.c   ****     }
  53:RGB2YCbCr.c   ****     
  54:RGB2YCbCr.c   ****     /* fill struct fields */
  55:RGB2YCbCr.c   ****     image_out->width  = width;
  56:RGB2YCbCr.c   ****     image_out->height = height;
  56              		.loc 1 56 23
  57 001f 44897E0C 		movl	%r15d, 12(%rsi)
  58              	.LBB2:
  59              	.LBB3:
  57:RGB2YCbCr.c   ****     image_out->bytes_per_pixel = 3;
  58:RGB2YCbCr.c   ****     image_out->color_space = JCS_YCbCr;
  59:RGB2YCbCr.c   **** 
  60:RGB2YCbCr.c   ****     start_t = get_wall_time();
  61:RGB2YCbCr.c   ****     for (int it = 0; it < NITER; it++)
  62:RGB2YCbCr.c   ****     {
  63:RGB2YCbCr.c   ****         for (int i = 0; i < height*width; i++)
  60              		.loc 1 63 35
  61 0023 440FAFFB 		imull	%ebx, %r15d
  62              	.LVL3:
  63 0027 4989FC   		movq	%rdi, %r12
  64 002a 4889F5   		movq	%rsi, %rbp
  65              	.LBE3:
  66              	.LBE2:
  55:RGB2YCbCr.c   ****     image_out->height = height;
  67              		.loc 1 55 5 is_stmt 1
  57:RGB2YCbCr.c   ****     image_out->bytes_per_pixel = 3;
  68              		.loc 1 57 32 is_stmt 0
  69 002d 48B80300 		movabsq	$12884901891, %rax
  69      00000300 
  69      0000
  55:RGB2YCbCr.c   ****     image_out->height = height;
  70              		.loc 1 55 23
  71 0037 895E08   		movl	%ebx, 8(%rsi)
  56:RGB2YCbCr.c   ****     image_out->bytes_per_pixel = 3;
  72              		.loc 1 56 5 is_stmt 1
  57:RGB2YCbCr.c   ****     image_out->bytes_per_pixel = 3;
  73              		.loc 1 57 5
  58:RGB2YCbCr.c   **** 
  74              		.loc 1 58 5
  75              	.LBB6:
  76              	.LBB4:
  77              		.loc 1 63 35 is_stmt 0
  78 003a 41BE0A00 		movl	$10, %r14d
  78      0000
  79              	.LBE4:
  80              	.LBE6:
  57:RGB2YCbCr.c   ****     image_out->color_space = JCS_YCbCr;
  81              		.loc 1 57 32
  82 0040 48894610 		movq	%rax, 16(%rsi)
  60:RGB2YCbCr.c   ****     for (int it = 0; it < NITER; it++)
  83              		.loc 1 60 5 is_stmt 1
  60:RGB2YCbCr.c   ****     for (int it = 0; it < NITER; it++)
  84              		.loc 1 60 15 is_stmt 0
  85 0044 31C0     		xorl	%eax, %eax
  86 0046 E8000000 		call	get_wall_time
  86      00
  87              	.LVL4:
  88 004b 418D47FF 		leal	-1(%r15), %eax
  89 004f C5F057C9 		vxorps	%xmm1, %xmm1, %xmm1
  90 0053 C5FB1144 		vmovsd	%xmm0, 8(%rsp)
  90      2408
  91              	.LVL5:
  61:RGB2YCbCr.c   ****     {
  92              		.loc 1 61 5 is_stmt 1
  93              	.LBB7:
  61:RGB2YCbCr.c   ****     {
  94              		.loc 1 61 10
  61:RGB2YCbCr.c   ****     {
  95              		.loc 1 61 22
  96 0059 4C8D6C40 		leaq	3(%rax,%rax,2), %r13
  96      03
  97              	.LVL6:
  98 005e 6690     		.p2align 4,,10
  99              		.p2align 3
 100              	.L3:
 101              	.LBB5:
 102              		.loc 1 63 25
 103              		.loc 1 63 9 is_stmt 0
 104 0060 31DB     		xorl	%ebx, %ebx
 105 0062 4585FF   		testl	%r15d, %r15d
 106 0065 0F8E2201 		jle	.L6
 106      0000
 107              	.LVL7:
 108 006b 0F1F4400 		.p2align 4,,10
 108      00
 109              		.p2align 3
 110              	.L4:
  64:RGB2YCbCr.c   ****         {
  65:RGB2YCbCr.c   ****             /* Y */
  66:RGB2YCbCr.c   ****             image_out->pixels[3*i + 0] = roundf(
 111              		.loc 1 66 13 is_stmt 1 discriminator 3
  67:RGB2YCbCr.c   ****                 RGB2YCbCr_offset[0] +
  68:RGB2YCbCr.c   ****                 RGB2YCbCr[0][0]*image_in->pixels[3*i + 0] + 
 112              		.loc 1 68 17 is_stmt 0 discriminator 3
 113 0070 498B1424 		movq	(%r12), %rdx
  67:RGB2YCbCr.c   ****                 RGB2YCbCr_offset[0] +
 114              		.loc 1 67 37 discriminator 3
 115 0074 C5E057DB 		vxorps	%xmm3, %xmm3, %xmm3
 116              		.loc 1 68 49 discriminator 3
 117 0078 0FB6041A 		movzbl	(%rdx,%rbx), %eax
 118              		.loc 1 68 32 discriminator 3
 119 007c C5F22AC0 		vcvtsi2ssl	%eax, %xmm1, %xmm0
 120 0080 C5FA5905 		vmulss	.LC1(%rip), %xmm0, %xmm0
 120      00000000 
  69:RGB2YCbCr.c   ****                 RGB2YCbCr[0][1]*image_in->pixels[3*i + 1] + 
 121              		.loc 1 69 49 discriminator 3
 122 0088 0FB6441A 		movzbl	1(%rdx,%rbx), %eax
 122      01
 123              		.loc 1 69 32 discriminator 3
 124 008d C5F22AD0 		vcvtsi2ssl	%eax, %xmm1, %xmm2
 125 0091 C5EA5915 		vmulss	.LC3(%rip), %xmm2, %xmm2
 125      00000000 
  70:RGB2YCbCr.c   ****                 RGB2YCbCr[0][2]*image_in->pixels[3*i + 2]);
 126              		.loc 1 70 49 discriminator 3
 127 0099 0FB6441A 		movzbl	2(%rdx,%rbx), %eax
 127      02
  67:RGB2YCbCr.c   ****                 RGB2YCbCr_offset[0] +
 128              		.loc 1 67 37 discriminator 3
 129 009e C5FA58C3 		vaddss	%xmm3, %xmm0, %xmm0
  68:RGB2YCbCr.c   ****                 RGB2YCbCr[0][1]*image_in->pixels[3*i + 1] + 
 130              		.loc 1 68 59 discriminator 3
 131 00a2 C5FA58C2 		vaddss	%xmm2, %xmm0, %xmm0
 132              		.loc 1 70 32 discriminator 3
 133 00a6 C5F22AD0 		vcvtsi2ssl	%eax, %xmm1, %xmm2
 134 00aa C5EA5915 		vmulss	.LC4(%rip), %xmm2, %xmm2
 134      00000000 
  66:RGB2YCbCr.c   ****                 RGB2YCbCr_offset[0] +
 135              		.loc 1 66 42 discriminator 3
 136 00b2 C5FA58C2 		vaddss	%xmm2, %xmm0, %xmm0
 137 00b6 E8000000 		call	roundf
 137      00
 138              	.LVL8:
  66:RGB2YCbCr.c   ****                 RGB2YCbCr_offset[0] +
 139              		.loc 1 66 40 discriminator 3
 140 00bb 488B5500 		movq	0(%rbp), %rdx
  71:RGB2YCbCr.c   ****             /* Cb */
  72:RGB2YCbCr.c   ****             image_out->pixels[3*i + 1] = roundf(
  73:RGB2YCbCr.c   ****                 RGB2YCbCr_offset[1] +
  74:RGB2YCbCr.c   ****                 RGB2YCbCr[1][0]*image_in->pixels[3*i + 0] + 
 141              		.loc 1 74 32 discriminator 3
 142 00bf C5F057C9 		vxorps	%xmm1, %xmm1, %xmm1
  66:RGB2YCbCr.c   ****                 RGB2YCbCr_offset[0] +
 143              		.loc 1 66 40 discriminator 3
 144 00c3 C5FA2CC0 		vcvttss2sil	%xmm0, %eax
 145 00c7 88041A   		movb	%al, (%rdx,%rbx)
  72:RGB2YCbCr.c   ****                 RGB2YCbCr_offset[1] +
 146              		.loc 1 72 13 is_stmt 1 discriminator 3
 147              		.loc 1 74 17 is_stmt 0 discriminator 3
 148 00ca 498B1424 		movq	(%r12), %rdx
 149              		.loc 1 74 49 discriminator 3
 150 00ce 0FB6041A 		movzbl	(%rdx,%rbx), %eax
 151              		.loc 1 74 32 discriminator 3
 152 00d2 C5F22AC0 		vcvtsi2ssl	%eax, %xmm1, %xmm0
  75:RGB2YCbCr.c   ****                 RGB2YCbCr[1][1]*image_in->pixels[3*i + 1] + 
 153              		.loc 1 75 49 discriminator 3
 154 00d6 0FB6441A 		movzbl	1(%rdx,%rbx), %eax
 154      01
  74:RGB2YCbCr.c   ****                 RGB2YCbCr[1][1]*image_in->pixels[3*i + 1] + 
 155              		.loc 1 74 32 discriminator 3
 156 00db C5FA5905 		vmulss	.LC5(%rip), %xmm0, %xmm0
 156      00000000 
  73:RGB2YCbCr.c   ****                 RGB2YCbCr[1][0]*image_in->pixels[3*i + 0] + 
 157              		.loc 1 73 37 discriminator 3
 158 00e3 C5FA5805 		vaddss	.LC6(%rip), %xmm0, %xmm0
 158      00000000 
 159              		.loc 1 75 32 discriminator 3
 160 00eb C5F22AD0 		vcvtsi2ssl	%eax, %xmm1, %xmm2
 161 00ef C5EA5915 		vmulss	.LC7(%rip), %xmm2, %xmm2
 161      00000000 
  76:RGB2YCbCr.c   ****                 RGB2YCbCr[1][2]*image_in->pixels[3*i + 2]);
 162              		.loc 1 76 49 discriminator 3
 163 00f7 0FB6441A 		movzbl	2(%rdx,%rbx), %eax
 163      02
  74:RGB2YCbCr.c   ****                 RGB2YCbCr[1][1]*image_in->pixels[3*i + 1] + 
 164              		.loc 1 74 59 discriminator 3
 165 00fc C5FA58C2 		vaddss	%xmm2, %xmm0, %xmm0
 166              		.loc 1 76 32 discriminator 3
 167 0100 C5F22AD0 		vcvtsi2ssl	%eax, %xmm1, %xmm2
 168 0104 C5EA5915 		vmulss	.LC8(%rip), %xmm2, %xmm2
 168      00000000 
  72:RGB2YCbCr.c   ****                 RGB2YCbCr_offset[1] +
 169              		.loc 1 72 42 discriminator 3
 170 010c C5FA58C2 		vaddss	%xmm2, %xmm0, %xmm0
 171 0110 E8000000 		call	roundf
 171      00
 172              	.LVL9:
  72:RGB2YCbCr.c   ****                 RGB2YCbCr_offset[1] +
 173              		.loc 1 72 40 discriminator 3
 174 0115 488B5500 		movq	0(%rbp), %rdx
  77:RGB2YCbCr.c   ****             /* Cr */
  78:RGB2YCbCr.c   ****             image_out->pixels[3*i + 2] = roundf(
  79:RGB2YCbCr.c   ****                 RGB2YCbCr_offset[2] +
  80:RGB2YCbCr.c   ****                 RGB2YCbCr[2][0]*image_in->pixels[3*i + 0] + 
 175              		.loc 1 80 32 discriminator 3
 176 0119 C5F057C9 		vxorps	%xmm1, %xmm1, %xmm1
  72:RGB2YCbCr.c   ****                 RGB2YCbCr_offset[1] +
 177              		.loc 1 72 40 discriminator 3
 178 011d C5FA2CC0 		vcvttss2sil	%xmm0, %eax
 179 0121 88441A01 		movb	%al, 1(%rdx,%rbx)
  78:RGB2YCbCr.c   ****                 RGB2YCbCr_offset[2] +
 180              		.loc 1 78 13 is_stmt 1 discriminator 3
 181              		.loc 1 80 17 is_stmt 0 discriminator 3
 182 0125 498B1424 		movq	(%r12), %rdx
 183              		.loc 1 80 49 discriminator 3
 184 0129 0FB6041A 		movzbl	(%rdx,%rbx), %eax
 185              		.loc 1 80 32 discriminator 3
 186 012d C5F22AC0 		vcvtsi2ssl	%eax, %xmm1, %xmm0
  81:RGB2YCbCr.c   ****                 RGB2YCbCr[2][1]*image_in->pixels[3*i + 1] + 
 187              		.loc 1 81 49 discriminator 3
 188 0131 0FB6441A 		movzbl	1(%rdx,%rbx), %eax
 188      01
  80:RGB2YCbCr.c   ****                 RGB2YCbCr[2][1]*image_in->pixels[3*i + 1] + 
 189              		.loc 1 80 32 discriminator 3
 190 0136 C5FA5905 		vmulss	.LC8(%rip), %xmm0, %xmm0
 190      00000000 
  79:RGB2YCbCr.c   ****                 RGB2YCbCr[2][0]*image_in->pixels[3*i + 0] + 
 191              		.loc 1 79 37 discriminator 3
 192 013e C5FA5805 		vaddss	.LC6(%rip), %xmm0, %xmm0
 192      00000000 
 193              		.loc 1 81 32 discriminator 3
 194 0146 C5F22AD0 		vcvtsi2ssl	%eax, %xmm1, %xmm2
 195 014a C5EA5915 		vmulss	.LC9(%rip), %xmm2, %xmm2
 195      00000000 
  82:RGB2YCbCr.c   ****                 RGB2YCbCr[2][2]*image_in->pixels[3*i + 2]);
 196              		.loc 1 82 49 discriminator 3
 197 0152 0FB6441A 		movzbl	2(%rdx,%rbx), %eax
 197      02
  80:RGB2YCbCr.c   ****                 RGB2YCbCr[2][1]*image_in->pixels[3*i + 1] + 
 198              		.loc 1 80 59 discriminator 3
 199 0157 C5FA58C2 		vaddss	%xmm2, %xmm0, %xmm0
 200              		.loc 1 82 32 discriminator 3
 201 015b C5F22AD0 		vcvtsi2ssl	%eax, %xmm1, %xmm2
 202 015f C5EA5915 		vmulss	.LC10(%rip), %xmm2, %xmm2
 202      00000000 
  78:RGB2YCbCr.c   ****                 RGB2YCbCr_offset[2] +
 203              		.loc 1 78 42 discriminator 3
 204 0167 C5FA58C2 		vaddss	%xmm2, %xmm0, %xmm0
 205 016b E8000000 		call	roundf
 205      00
 206              	.LVL10:
  78:RGB2YCbCr.c   ****                 RGB2YCbCr_offset[2] +
 207              		.loc 1 78 40 discriminator 3
 208 0170 488B5500 		movq	0(%rbp), %rdx
  63:RGB2YCbCr.c   ****         {
 209              		.loc 1 63 9 discriminator 3
 210 0174 C5F057C9 		vxorps	%xmm1, %xmm1, %xmm1
  78:RGB2YCbCr.c   ****                 RGB2YCbCr_offset[2] +
 211              		.loc 1 78 40 discriminator 3
 212 0178 C5FA2CC0 		vcvttss2sil	%xmm0, %eax
 213 017c 88441A02 		movb	%al, 2(%rdx,%rbx)
  63:RGB2YCbCr.c   ****         {
 214              		.loc 1 63 43 is_stmt 1 discriminator 3
  63:RGB2YCbCr.c   ****         {
 215              		.loc 1 63 25 discriminator 3
 216 0180 4883C303 		addq	$3, %rbx
  63:RGB2YCbCr.c   ****         {
 217              		.loc 1 63 9 is_stmt 0 discriminator 3
 218 0184 4C39EB   		cmpq	%r13, %rbx
 219 0187 0F85E3FE 		jne	.L4
 219      FFFF
 220              	.L6:
 221              	.LBE5:
  83:RGB2YCbCr.c   **** 
  84:RGB2YCbCr.c   ****         }
  85:RGB2YCbCr.c   ****         dummy(image_in, image_out);
 222              		.loc 1 85 9 is_stmt 1
 223 018d 4889EE   		movq	%rbp, %rsi
 224 0190 4C89E7   		movq	%r12, %rdi
 225 0193 E8000000 		call	dummy
 225      00
 226              	.LVL11:
  61:RGB2YCbCr.c   ****     {
 227              		.loc 1 61 34
  61:RGB2YCbCr.c   ****     {
 228              		.loc 1 61 22
  61:RGB2YCbCr.c   ****     {
 229              		.loc 1 61 5 is_stmt 0
 230 0198 41FFCE   		decl	%r14d
 231 019b C5F057C9 		vxorps	%xmm1, %xmm1, %xmm1
 232 019f 0F85BBFE 		jne	.L3
 232      FFFF
 233              	.LBE7:
  86:RGB2YCbCr.c   ****     }
  87:RGB2YCbCr.c   ****     end_t = get_wall_time();
 234              		.loc 1 87 5 is_stmt 1
 235              		.loc 1 87 13 is_stmt 0
 236 01a5 31C0     		xorl	%eax, %eax
 237 01a7 E8000000 		call	get_wall_time
 237      00
 238              	.LVL12:
  88:RGB2YCbCr.c   ****     results(end_t - start_t, height*width, "RGB2YCbCr_roundf0");
 239              		.loc 1 88 5 is_stmt 1
 240 01ac C5FB5C44 		vsubsd	8(%rsp), %xmm0, %xmm0
 240      2408
 241              	.LVL13:
  89:RGB2YCbCr.c   **** }
 242              		.loc 1 89 1 is_stmt 0
 243 01b2 4883C418 		addq	$24, %rsp
 244              		.cfi_remember_state
 245              		.cfi_def_cfa_offset 56
  88:RGB2YCbCr.c   ****     results(end_t - start_t, height*width, "RGB2YCbCr_roundf0");
 246              		.loc 1 88 5
 247 01b6 4489FF   		movl	%r15d, %edi
 248              		.loc 1 89 1
 249 01b9 5B       		popq	%rbx
 250              		.cfi_def_cfa_offset 48
  88:RGB2YCbCr.c   ****     results(end_t - start_t, height*width, "RGB2YCbCr_roundf0");
 251              		.loc 1 88 5
 252 01ba BE000000 		movl	$.LC11, %esi
 252      00
 253              		.loc 1 89 1
 254 01bf 5D       		popq	%rbp
 255              		.cfi_def_cfa_offset 40
 256              	.LVL14:
 257 01c0 415C     		popq	%r12
 258              		.cfi_def_cfa_offset 32
 259              	.LVL15:
 260 01c2 415D     		popq	%r13
 261              		.cfi_def_cfa_offset 24
 262 01c4 415E     		popq	%r14
 263              		.cfi_def_cfa_offset 16
 264 01c6 415F     		popq	%r15
 265              		.cfi_def_cfa_offset 8
  88:RGB2YCbCr.c   ****     results(end_t - start_t, height*width, "RGB2YCbCr_roundf0");
 266              		.loc 1 88 5
 267 01c8 E9000000 		jmp	results
 267      00
 268              	.LVL16:
 269              	.L11:
 270              		.cfi_restore_state
  50:RGB2YCbCr.c   ****         exit(-1);
 271              		.loc 1 50 9 is_stmt 1
 272 01cd BF000000 		movl	$.LC0, %edi
 272      00
 273              	.LVL17:
 274 01d2 E8000000 		call	puts
 274      00
 275              	.LVL18:
  51:RGB2YCbCr.c   ****     }
 276              		.loc 1 51 9
 277 01d7 83CFFF   		orl	$-1, %edi
 278 01da E8000000 		call	exit
 278      00
 279              	.LVL19:
 280              		.cfi_endproc
 281              	.LFE14:
 283              		.section	.rodata.str1.1
 284              	.LC12:
 285 0012 52474232 		.string	"RGB2YCbCr_roundf1"
 285      59436243 
 285      725F726F 
 285      756E6466 
 285      3100
 286              		.text
 287 01df 90       		.p2align 4
 288              		.globl	RGB2YCbCr_roundf1
 290              	RGB2YCbCr_roundf1:
 291              	.LFB15:
  90:RGB2YCbCr.c   **** //----------------------------------------------------------------------------
  91:RGB2YCbCr.c   **** 
  92:RGB2YCbCr.c   **** /* cambios respecto RGB2Gray_roundf_0(): restricts, #pragma GCC ivdep */
  93:RGB2YCbCr.c   **** void
  94:RGB2YCbCr.c   **** RGB2YCbCr_roundf1(image_t * restrict image_in, image_t * restrict image_out)
  95:RGB2YCbCr.c   **** {
 292              		.loc 1 95 1
 293              		.cfi_startproc
 294              	.LVL20:
  96:RGB2YCbCr.c   ****     double start_t, end_t;
 295              		.loc 1 96 5
  97:RGB2YCbCr.c   ****     const int height = image_in->height;
 296              		.loc 1 97 5
  95:RGB2YCbCr.c   ****     double start_t, end_t;
 297              		.loc 1 95 1 is_stmt 0
 298 01e0 4157     		pushq	%r15
 299              		.cfi_def_cfa_offset 16
 300              		.cfi_offset 15, -16
 301 01e2 4156     		pushq	%r14
 302              		.cfi_def_cfa_offset 24
 303              		.cfi_offset 14, -24
 304 01e4 4155     		pushq	%r13
 305              		.cfi_def_cfa_offset 32
 306              		.cfi_offset 13, -32
 307 01e6 4154     		pushq	%r12
 308              		.cfi_def_cfa_offset 40
 309              		.cfi_offset 12, -40
 310 01e8 55       		pushq	%rbp
 311              		.cfi_def_cfa_offset 48
 312              		.cfi_offset 6, -48
 313 01e9 53       		pushq	%rbx
 314              		.cfi_def_cfa_offset 56
 315              		.cfi_offset 3, -56
 316 01ea 4883EC28 		subq	$40, %rsp
 317              		.cfi_def_cfa_offset 96
  98:RGB2YCbCr.c   ****     const int width =  image_in->width;
  99:RGB2YCbCr.c   ****     unsigned char * restrict pixels_in  = image_in->pixels;
 318              		.loc 1 99 30
 319 01ee 488B07   		movq	(%rdi), %rax
 100:RGB2YCbCr.c   ****     unsigned char * restrict pixels_out = image_out->pixels;
 101:RGB2YCbCr.c   **** 
 102:RGB2YCbCr.c   ****     if (image_in->bytes_per_pixel != 3)
 320              		.loc 1 102 8
 321 01f1 837F1003 		cmpl	$3, 16(%rdi)
  97:RGB2YCbCr.c   ****     const int width =  image_in->width;
 322              		.loc 1 97 15
 323 01f5 448B7F0C 		movl	12(%rdi), %r15d
 324              	.LVL21:
  98:RGB2YCbCr.c   ****     const int width =  image_in->width;
 325              		.loc 1 98 5 is_stmt 1
  98:RGB2YCbCr.c   ****     const int width =  image_in->width;
 326              		.loc 1 98 15 is_stmt 0
 327 01f9 8B5F08   		movl	8(%rdi), %ebx
 328              	.LVL22:
  99:RGB2YCbCr.c   ****     unsigned char * restrict pixels_out = image_out->pixels;
 329              		.loc 1 99 5 is_stmt 1
  99:RGB2YCbCr.c   ****     unsigned char * restrict pixels_out = image_out->pixels;
 330              		.loc 1 99 30 is_stmt 0
 331 01fc 48894424 		movq	%rax, 8(%rsp)
 331      08
 332              	.LVL23:
 100:RGB2YCbCr.c   ****     unsigned char * restrict pixels_out = image_out->pixels;
 333              		.loc 1 100 5 is_stmt 1
 100:RGB2YCbCr.c   ****     unsigned char * restrict pixels_out = image_out->pixels;
 334              		.loc 1 100 30 is_stmt 0
 335 0201 488B06   		movq	(%rsi), %rax
 336              	.LVL24:
 337 0204 48894424 		movq	%rax, 16(%rsp)
 337      10
 338              	.LVL25:
 339              		.loc 1 102 5 is_stmt 1
 340              		.loc 1 102 8 is_stmt 0
 341 0209 0F85BB01 		jne	.L21
 341      0000
 103:RGB2YCbCr.c   ****     {
 104:RGB2YCbCr.c   ****         printf("ERROR: input image has to be RGB\n");
 105:RGB2YCbCr.c   ****         exit(-1);
 106:RGB2YCbCr.c   ****     }
 107:RGB2YCbCr.c   ****     
 108:RGB2YCbCr.c   ****     /* fill struct fields */
 109:RGB2YCbCr.c   ****     image_out->width  = width;
 110:RGB2YCbCr.c   ****     image_out->height = height;
 342              		.loc 1 110 23
 343 020f 44897E0C 		movl	%r15d, 12(%rsi)
 344              	.LBB8:
 345              	.LBB9:
 111:RGB2YCbCr.c   ****     image_out->bytes_per_pixel = 3;
 112:RGB2YCbCr.c   ****     image_out->color_space = JCS_YCbCr;
 113:RGB2YCbCr.c   **** 
 114:RGB2YCbCr.c   ****     start_t = get_wall_time();
 115:RGB2YCbCr.c   ****     for (int it=0; it < NITER; it++)
 116:RGB2YCbCr.c   ****     {
 117:RGB2YCbCr.c   ****         #pragma GCC ivdep
 118:RGB2YCbCr.c   ****         for (int i = 0; i < height*width; i++)
 346              		.loc 1 118 35
 347 0213 440FAFFB 		imull	%ebx, %r15d
 348              	.LVL26:
 349 0217 4989FE   		movq	%rdi, %r14
 350 021a 4989F5   		movq	%rsi, %r13
 351              	.LBE9:
 352              	.LBE8:
 109:RGB2YCbCr.c   ****     image_out->height = height;
 353              		.loc 1 109 5 is_stmt 1
 111:RGB2YCbCr.c   ****     image_out->bytes_per_pixel = 3;
 354              		.loc 1 111 32 is_stmt 0
 355 021d 48B80300 		movabsq	$12884901891, %rax
 355      00000300 
 355      0000
 356              	.LVL27:
 109:RGB2YCbCr.c   ****     image_out->height = height;
 357              		.loc 1 109 23
 358 0227 895E08   		movl	%ebx, 8(%rsi)
 110:RGB2YCbCr.c   ****     image_out->bytes_per_pixel = 3;
 359              		.loc 1 110 5 is_stmt 1
 111:RGB2YCbCr.c   ****     image_out->bytes_per_pixel = 3;
 360              		.loc 1 111 5
 112:RGB2YCbCr.c   **** 
 361              		.loc 1 112 5
 362              	.LBB13:
 363              	.LBB10:
 364              		.loc 1 118 35 is_stmt 0
 365 022a 41BC0A00 		movl	$10, %r12d
 365      0000
 366              	.LBE10:
 367              	.LBE13:
 111:RGB2YCbCr.c   ****     image_out->color_space = JCS_YCbCr;
 368              		.loc 1 111 32
 369 0230 48894610 		movq	%rax, 16(%rsi)
 114:RGB2YCbCr.c   ****     for (int it=0; it < NITER; it++)
 370              		.loc 1 114 5 is_stmt 1
 114:RGB2YCbCr.c   ****     for (int it=0; it < NITER; it++)
 371              		.loc 1 114 15 is_stmt 0
 372 0234 31C0     		xorl	%eax, %eax
 373 0236 E8000000 		call	get_wall_time
 373      00
 374              	.LVL28:
 375 023b 488B5424 		movq	8(%rsp), %rdx
 375      08
 376 0240 418D47FF 		leal	-1(%r15), %eax
 377              	.LBB14:
 378              	.LBB11:
 379              		.loc 1 118 35
 380 0244 44897C24 		movl	%r15d, 4(%rsp)
 380      04
 381 0249 488D0440 		leaq	(%rax,%rax,2), %rax
 382              	.LBE11:
 383              	.LBE14:
 114:RGB2YCbCr.c   ****     for (int it=0; it < NITER; it++)
 384              		.loc 1 114 15
 385 024d C5FB1144 		vmovsd	%xmm0, 24(%rsp)
 385      2418
 386              	.LVL29:
 115:RGB2YCbCr.c   ****     {
 387              		.loc 1 115 5 is_stmt 1
 388              	.LBB15:
 115:RGB2YCbCr.c   ****     {
 389              		.loc 1 115 10
 115:RGB2YCbCr.c   ****     {
 390              		.loc 1 115 20
 391 0253 C5F057C9 		vxorps	%xmm1, %xmm1, %xmm1
 392 0257 488D6C02 		leaq	3(%rdx,%rax), %rbp
 392      03
 393              	.LVL30:
 394 025c 0F1F4000 		.p2align 4,,10
 395              		.p2align 3
 396              	.L14:
 397              	.LBB12:
 398              		.loc 1 118 25
 399              		.loc 1 118 9 is_stmt 0
 400 0260 8B442404 		movl	4(%rsp), %eax
 401 0264 85C0     		testl	%eax, %eax
 402 0266 0F8E1D01 		jle	.L18
 402      0000
 403 026c 488B5C24 		movq	16(%rsp), %rbx
 403      10
 404 0271 4C8B7C24 		movq	8(%rsp), %r15
 404      08
 405              	.LVL31:
 406 0276 662E0F1F 		.p2align 4,,10
 406      84000000 
 406      0000
 407              		.p2align 3
 408              	.L15:
 119:RGB2YCbCr.c   ****         {
 120:RGB2YCbCr.c   ****             /* R */
 121:RGB2YCbCr.c   ****             pixels_out[3*i + 0] = roundf(
 409              		.loc 1 121 13 is_stmt 1 discriminator 3
 122:RGB2YCbCr.c   ****                 RGB2YCbCr_offset[0] +
 123:RGB2YCbCr.c   ****                 RGB2YCbCr[0][0]*pixels_in[3*i + 0] + 
 410              		.loc 1 123 42 is_stmt 0 discriminator 3
 411 0280 410FB607 		movzbl	(%r15), %eax
 122:RGB2YCbCr.c   ****                 RGB2YCbCr_offset[0] +
 412              		.loc 1 122 37 discriminator 3
 413 0284 C5E057DB 		vxorps	%xmm3, %xmm3, %xmm3
 414 0288 4983C703 		addq	$3, %r15
 415 028c 4883C303 		addq	$3, %rbx
 416              		.loc 1 123 32 discriminator 3
 417 0290 C5F22AC0 		vcvtsi2ssl	%eax, %xmm1, %xmm0
 418 0294 C5FA5905 		vmulss	.LC1(%rip), %xmm0, %xmm0
 418      00000000 
 124:RGB2YCbCr.c   ****                 RGB2YCbCr[0][1]*pixels_in[3*i + 1] + 
 419              		.loc 1 124 42 discriminator 3
 420 029c 410FB647 		movzbl	-2(%r15), %eax
 420      FE
 421              		.loc 1 124 32 discriminator 3
 422 02a1 C5F22AD0 		vcvtsi2ssl	%eax, %xmm1, %xmm2
 423 02a5 C5EA5915 		vmulss	.LC3(%rip), %xmm2, %xmm2
 423      00000000 
 125:RGB2YCbCr.c   ****                 RGB2YCbCr[0][2]*pixels_in[3*i + 2]);
 424              		.loc 1 125 42 discriminator 3
 425 02ad 410FB647 		movzbl	-1(%r15), %eax
 425      FF
 122:RGB2YCbCr.c   ****                 RGB2YCbCr_offset[0] +
 426              		.loc 1 122 37 discriminator 3
 427 02b2 C5FA58C3 		vaddss	%xmm3, %xmm0, %xmm0
 123:RGB2YCbCr.c   ****                 RGB2YCbCr[0][1]*pixels_in[3*i + 1] + 
 428              		.loc 1 123 52 discriminator 3
 429 02b6 C5FA58C2 		vaddss	%xmm2, %xmm0, %xmm0
 430              		.loc 1 125 32 discriminator 3
 431 02ba C5F22AD0 		vcvtsi2ssl	%eax, %xmm1, %xmm2
 432 02be C5EA5915 		vmulss	.LC4(%rip), %xmm2, %xmm2
 432      00000000 
 121:RGB2YCbCr.c   ****                 RGB2YCbCr_offset[0] +
 433              		.loc 1 121 35 discriminator 3
 434 02c6 C5FA58C2 		vaddss	%xmm2, %xmm0, %xmm0
 435 02ca E8000000 		call	roundf
 435      00
 436              	.LVL32:
 126:RGB2YCbCr.c   ****             /* G */
 127:RGB2YCbCr.c   ****             pixels_out[3*i + 1] = roundf(
 128:RGB2YCbCr.c   ****                 RGB2YCbCr_offset[1] +
 129:RGB2YCbCr.c   ****                 RGB2YCbCr[1][0]*pixels_in[3*i + 0] + 
 437              		.loc 1 129 32 discriminator 3
 438 02cf C5F057C9 		vxorps	%xmm1, %xmm1, %xmm1
 121:RGB2YCbCr.c   ****                 RGB2YCbCr_offset[0] +
 439              		.loc 1 121 33 discriminator 3
 440 02d3 C5FA2CC0 		vcvttss2sil	%xmm0, %eax
 441 02d7 8843FD   		movb	%al, -3(%rbx)
 127:RGB2YCbCr.c   ****                 RGB2YCbCr_offset[1] +
 442              		.loc 1 127 13 is_stmt 1 discriminator 3
 443              		.loc 1 129 42 is_stmt 0 discriminator 3
 444 02da 410FB647 		movzbl	-3(%r15), %eax
 444      FD
 445              		.loc 1 129 32 discriminator 3
 446 02df C5F22AC0 		vcvtsi2ssl	%eax, %xmm1, %xmm0
 130:RGB2YCbCr.c   ****                 RGB2YCbCr[1][1]*pixels_in[3*i + 1] + 
 447              		.loc 1 130 42 discriminator 3
 448 02e3 410FB647 		movzbl	-2(%r15), %eax
 448      FE
 129:RGB2YCbCr.c   ****                 RGB2YCbCr[1][1]*pixels_in[3*i + 1] + 
 449              		.loc 1 129 32 discriminator 3
 450 02e8 C5FA5905 		vmulss	.LC5(%rip), %xmm0, %xmm0
 450      00000000 
 128:RGB2YCbCr.c   ****                 RGB2YCbCr[1][0]*pixels_in[3*i + 0] + 
 451              		.loc 1 128 37 discriminator 3
 452 02f0 C5FA5805 		vaddss	.LC6(%rip), %xmm0, %xmm0
 452      00000000 
 453              		.loc 1 130 32 discriminator 3
 454 02f8 C5F22AD0 		vcvtsi2ssl	%eax, %xmm1, %xmm2
 455 02fc C5EA5915 		vmulss	.LC7(%rip), %xmm2, %xmm2
 455      00000000 
 131:RGB2YCbCr.c   ****                 RGB2YCbCr[1][2]*pixels_in[3*i + 2]);
 456              		.loc 1 131 42 discriminator 3
 457 0304 410FB647 		movzbl	-1(%r15), %eax
 457      FF
 129:RGB2YCbCr.c   ****                 RGB2YCbCr[1][1]*pixels_in[3*i + 1] + 
 458              		.loc 1 129 52 discriminator 3
 459 0309 C5FA58C2 		vaddss	%xmm2, %xmm0, %xmm0
 460              		.loc 1 131 32 discriminator 3
 461 030d C5F22AD0 		vcvtsi2ssl	%eax, %xmm1, %xmm2
 462 0311 C5EA5915 		vmulss	.LC8(%rip), %xmm2, %xmm2
 462      00000000 
 127:RGB2YCbCr.c   ****                 RGB2YCbCr_offset[1] +
 463              		.loc 1 127 35 discriminator 3
 464 0319 C5FA58C2 		vaddss	%xmm2, %xmm0, %xmm0
 465 031d E8000000 		call	roundf
 465      00
 466              	.LVL33:
 132:RGB2YCbCr.c   ****             /* B */
 133:RGB2YCbCr.c   ****             pixels_out[3*i + 2] = roundf(
 134:RGB2YCbCr.c   ****                 RGB2YCbCr_offset[2] +
 135:RGB2YCbCr.c   ****                 RGB2YCbCr[2][0]*pixels_in[3*i + 0] + 
 467              		.loc 1 135 32 discriminator 3
 468 0322 C5F057C9 		vxorps	%xmm1, %xmm1, %xmm1
 127:RGB2YCbCr.c   ****                 RGB2YCbCr_offset[1] +
 469              		.loc 1 127 33 discriminator 3
 470 0326 C5FA2CC0 		vcvttss2sil	%xmm0, %eax
 471 032a 8843FE   		movb	%al, -2(%rbx)
 133:RGB2YCbCr.c   ****                 RGB2YCbCr_offset[2] +
 472              		.loc 1 133 13 is_stmt 1 discriminator 3
 473              		.loc 1 135 42 is_stmt 0 discriminator 3
 474 032d 410FB647 		movzbl	-3(%r15), %eax
 474      FD
 475              		.loc 1 135 32 discriminator 3
 476 0332 C5F22AC0 		vcvtsi2ssl	%eax, %xmm1, %xmm0
 136:RGB2YCbCr.c   ****                 RGB2YCbCr[2][1]*pixels_in[3*i + 1] + 
 477              		.loc 1 136 42 discriminator 3
 478 0336 410FB647 		movzbl	-2(%r15), %eax
 478      FE
 135:RGB2YCbCr.c   ****                 RGB2YCbCr[2][1]*pixels_in[3*i + 1] + 
 479              		.loc 1 135 32 discriminator 3
 480 033b C5FA5905 		vmulss	.LC8(%rip), %xmm0, %xmm0
 480      00000000 
 134:RGB2YCbCr.c   ****                 RGB2YCbCr[2][0]*pixels_in[3*i + 0] + 
 481              		.loc 1 134 37 discriminator 3
 482 0343 C5FA5805 		vaddss	.LC6(%rip), %xmm0, %xmm0
 482      00000000 
 483              		.loc 1 136 32 discriminator 3
 484 034b C5F22AD0 		vcvtsi2ssl	%eax, %xmm1, %xmm2
 485 034f C5EA5915 		vmulss	.LC9(%rip), %xmm2, %xmm2
 485      00000000 
 137:RGB2YCbCr.c   ****                 RGB2YCbCr[2][2]*pixels_in[3*i + 2]);
 486              		.loc 1 137 42 discriminator 3
 487 0357 410FB647 		movzbl	-1(%r15), %eax
 487      FF
 135:RGB2YCbCr.c   ****                 RGB2YCbCr[2][1]*pixels_in[3*i + 1] + 
 488              		.loc 1 135 52 discriminator 3
 489 035c C5FA58C2 		vaddss	%xmm2, %xmm0, %xmm0
 490              		.loc 1 137 32 discriminator 3
 491 0360 C5F22AD0 		vcvtsi2ssl	%eax, %xmm1, %xmm2
 492 0364 C5EA5915 		vmulss	.LC10(%rip), %xmm2, %xmm2
 492      00000000 
 133:RGB2YCbCr.c   ****                 RGB2YCbCr_offset[2] +
 493              		.loc 1 133 35 discriminator 3
 494 036c C5FA58C2 		vaddss	%xmm2, %xmm0, %xmm0
 495 0370 E8000000 		call	roundf
 495      00
 496              	.LVL34:
 118:RGB2YCbCr.c   ****         {
 497              		.loc 1 118 9 discriminator 3
 498 0375 C5F057C9 		vxorps	%xmm1, %xmm1, %xmm1
 133:RGB2YCbCr.c   ****                 RGB2YCbCr_offset[2] +
 499              		.loc 1 133 33 discriminator 3
 500 0379 C5FA2CC0 		vcvttss2sil	%xmm0, %eax
 501 037d 8843FF   		movb	%al, -1(%rbx)
 118:RGB2YCbCr.c   ****         {
 502              		.loc 1 118 43 is_stmt 1 discriminator 3
 118:RGB2YCbCr.c   ****         {
 503              		.loc 1 118 25 discriminator 3
 118:RGB2YCbCr.c   ****         {
 504              		.loc 1 118 9 is_stmt 0 discriminator 3
 505 0380 4939EF   		cmpq	%rbp, %r15
 506 0383 0F85F7FE 		jne	.L15
 506      FFFF
 507              	.L18:
 508              	.LBE12:
 138:RGB2YCbCr.c   ****         }
 139:RGB2YCbCr.c   ****         dummy(image_in, image_out);
 509              		.loc 1 139 9 is_stmt 1
 510 0389 4C89EE   		movq	%r13, %rsi
 511 038c 4C89F7   		movq	%r14, %rdi
 512 038f E8000000 		call	dummy
 512      00
 513              	.LVL35:
 115:RGB2YCbCr.c   ****     {
 514              		.loc 1 115 32
 115:RGB2YCbCr.c   ****     {
 515              		.loc 1 115 20
 115:RGB2YCbCr.c   ****     {
 516              		.loc 1 115 5 is_stmt 0
 517 0394 41FFCC   		decl	%r12d
 518 0397 C5F057C9 		vxorps	%xmm1, %xmm1, %xmm1
 519 039b 0F85BFFE 		jne	.L14
 519      FFFF
 520              	.LBE15:
 140:RGB2YCbCr.c   ****     }
 141:RGB2YCbCr.c   ****     end_t = get_wall_time();
 521              		.loc 1 141 5 is_stmt 1
 522              		.loc 1 141 13 is_stmt 0
 523 03a1 31C0     		xorl	%eax, %eax
 524 03a3 E8000000 		call	get_wall_time
 524      00
 525              	.LVL36:
 142:RGB2YCbCr.c   ****     results(end_t - start_t, height*width, "RGB2YCbCr_roundf1");
 526              		.loc 1 142 5 is_stmt 1
 527 03a8 C5FB5C44 		vsubsd	24(%rsp), %xmm0, %xmm0
 527      2418
 528              	.LVL37:
 529 03ae 8B7C2404 		movl	4(%rsp), %edi
 143:RGB2YCbCr.c   **** }
 530              		.loc 1 143 1 is_stmt 0
 531 03b2 4883C428 		addq	$40, %rsp
 532              		.cfi_remember_state
 533              		.cfi_def_cfa_offset 56
 534 03b6 5B       		popq	%rbx
 535              		.cfi_def_cfa_offset 48
 142:RGB2YCbCr.c   ****     results(end_t - start_t, height*width, "RGB2YCbCr_roundf1");
 536              		.loc 1 142 5
 537 03b7 BE000000 		movl	$.LC12, %esi
 537      00
 538              		.loc 1 143 1
 539 03bc 5D       		popq	%rbp
 540              		.cfi_def_cfa_offset 40
 541 03bd 415C     		popq	%r12
 542              		.cfi_def_cfa_offset 32
 543 03bf 415D     		popq	%r13
 544              		.cfi_def_cfa_offset 24
 545              	.LVL38:
 546 03c1 415E     		popq	%r14
 547              		.cfi_def_cfa_offset 16
 548              	.LVL39:
 549 03c3 415F     		popq	%r15
 550              		.cfi_def_cfa_offset 8
 142:RGB2YCbCr.c   ****     results(end_t - start_t, height*width, "RGB2YCbCr_roundf1");
 551              		.loc 1 142 5
 552 03c5 E9000000 		jmp	results
 552      00
 553              	.LVL40:
 554              	.L21:
 555              		.cfi_restore_state
 104:RGB2YCbCr.c   ****         exit(-1);
 556              		.loc 1 104 9 is_stmt 1
 557 03ca BF000000 		movl	$.LC0, %edi
 557      00
 558              	.LVL41:
 559 03cf E8000000 		call	puts
 559      00
 560              	.LVL42:
 105:RGB2YCbCr.c   ****     }
 561              		.loc 1 105 9
 562 03d4 83CFFF   		orl	$-1, %edi
 563 03d7 E8000000 		call	exit
 563      00
 564              	.LVL43:
 565              		.cfi_endproc
 566              	.LFE15:
 568              		.section	.rodata.str1.1
 569              	.LC63:
 570 0024 52474232 		.string	"RGB2Gray_cast0"
 570      47726179 
 570      5F636173 
 570      743000
 571              		.text
 572 03dc 0F1F4000 		.p2align 4
 573              		.globl	RGB2YCbCr_cast0
 575              	RGB2YCbCr_cast0:
 576              	.LFB16:
 144:RGB2YCbCr.c   **** //----------------------------------------------------------------------------
 145:RGB2YCbCr.c   **** 
 146:RGB2YCbCr.c   **** /* cambios respecto RGB2YCbCr_roundf2(): cast en lugar de roundf() */
 147:RGB2YCbCr.c   **** /* https://www.cs.tut.fi/~jkorpela/round.html */
 148:RGB2YCbCr.c   **** void
 149:RGB2YCbCr.c   **** RGB2YCbCr_cast0(image_t * restrict image_in, image_t * restrict image_out)
 150:RGB2YCbCr.c   **** {
 577              		.loc 1 150 1
 578              		.cfi_startproc
 579              	.LVL44:
 151:RGB2YCbCr.c   ****     double start_t, end_t;
 580              		.loc 1 151 5
 152:RGB2YCbCr.c   ****     const int height = image_in->height;
 581              		.loc 1 152 5
 150:RGB2YCbCr.c   ****     double start_t, end_t;
 582              		.loc 1 150 1 is_stmt 0
 583 03e0 4155     		pushq	%r13
 584              		.cfi_def_cfa_offset 16
 585              		.cfi_offset 13, -16
 586 03e2 4C8D6C24 		leaq	16(%rsp), %r13
 586      10
 587              		.cfi_def_cfa 13, 0
 588 03e7 4883E4E0 		andq	$-32, %rsp
 589 03eb 41FF75F8 		pushq	-8(%r13)
 590 03ef 55       		pushq	%rbp
 591              		.cfi_escape 0x10,0x6,0x2,0x76,0
 592 03f0 4889E5   		movq	%rsp, %rbp
 593 03f3 4157     		pushq	%r15
 594 03f5 4156     		pushq	%r14
 595 03f7 4155     		pushq	%r13
 596              		.cfi_escape 0xf,0x3,0x76,0x68,0x6
 597              		.cfi_escape 0x10,0xf,0x2,0x76,0x78
 598              		.cfi_escape 0x10,0xe,0x2,0x76,0x70
 599 03f9 4154     		pushq	%r12
 600 03fb 53       		pushq	%rbx
 601 03fc 4881EC88 		subq	$392, %rsp
 601      010000
 602              		.cfi_escape 0x10,0xc,0x2,0x76,0x60
 603              		.cfi_escape 0x10,0x3,0x2,0x76,0x58
 153:RGB2YCbCr.c   ****     const int width =  image_in->width;
 154:RGB2YCbCr.c   ****     unsigned char * restrict pixels_in  = image_in->pixels;
 604              		.loc 1 154 30
 605 0403 488B07   		movq	(%rdi), %rax
 155:RGB2YCbCr.c   ****     unsigned char * restrict pixels_out = image_out->pixels;
 156:RGB2YCbCr.c   **** 
 157:RGB2YCbCr.c   ****     if (image_in->bytes_per_pixel != 3)
 606              		.loc 1 157 8
 607 0406 837F1003 		cmpl	$3, 16(%rdi)
 152:RGB2YCbCr.c   ****     const int width =  image_in->width;
 608              		.loc 1 152 15
 609 040a 8B5F0C   		movl	12(%rdi), %ebx
 610              	.LVL45:
 153:RGB2YCbCr.c   ****     const int width =  image_in->width;
 611              		.loc 1 153 5 is_stmt 1
 153:RGB2YCbCr.c   ****     const int width =  image_in->width;
 612              		.loc 1 153 15 is_stmt 0
 613 040d 448B6F08 		movl	8(%rdi), %r13d
 614              	.LVL46:
 154:RGB2YCbCr.c   ****     unsigned char * restrict pixels_out = image_out->pixels;
 615              		.loc 1 154 5 is_stmt 1
 154:RGB2YCbCr.c   ****     unsigned char * restrict pixels_out = image_out->pixels;
 616              		.loc 1 154 30 is_stmt 0
 617 0411 48898568 		movq	%rax, -408(%rbp)
 617      FEFFFF
 618              	.LVL47:
 155:RGB2YCbCr.c   ****     unsigned char * restrict pixels_out = image_out->pixels;
 619              		.loc 1 155 5 is_stmt 1
 155:RGB2YCbCr.c   ****     unsigned char * restrict pixels_out = image_out->pixels;
 620              		.loc 1 155 30 is_stmt 0
 621 0418 488B06   		movq	(%rsi), %rax
 622              	.LVL48:
 623 041b 48898560 		movq	%rax, -416(%rbp)
 623      FEFFFF
 624              	.LVL49:
 625              		.loc 1 157 5 is_stmt 1
 626              		.loc 1 157 8 is_stmt 0
 627 0422 0F85B40C 		jne	.L37
 627      0000
 158:RGB2YCbCr.c   ****     {
 159:RGB2YCbCr.c   ****         printf("ERROR: input image has to be RGB\n");
 160:RGB2YCbCr.c   ****         exit(-1);
 161:RGB2YCbCr.c   ****     }
 162:RGB2YCbCr.c   ****     
 163:RGB2YCbCr.c   ****     /* fill struct fields */
 164:RGB2YCbCr.c   ****     image_out->width  = width;
 165:RGB2YCbCr.c   ****     image_out->height = height;
 166:RGB2YCbCr.c   ****     image_out->bytes_per_pixel = 3;
 628              		.loc 1 166 32
 629 0428 48B80300 		movabsq	$12884901891, %rax
 629      00000300 
 629      0000
 630              	.LVL50:
 164:RGB2YCbCr.c   ****     image_out->height = height;
 631              		.loc 1 164 23
 632 0432 44896E08 		movl	%r13d, 8(%rsi)
 633              	.LBB16:
 634              	.LBB17:
 167:RGB2YCbCr.c   ****     image_out->color_space = JCS_YCbCr;
 168:RGB2YCbCr.c   **** 
 169:RGB2YCbCr.c   ****     start_t = get_wall_time();
 170:RGB2YCbCr.c   **** 
 171:RGB2YCbCr.c   ****     for (int it = 0; it < NITER; it++)
 172:RGB2YCbCr.c   ****     {
 173:RGB2YCbCr.c   ****         #pragma GCC ivdep
 174:RGB2YCbCr.c   ****         for (int i = 0; i < height*width; i++)
 635              		.loc 1 174 35
 636 0436 440FAFEB 		imull	%ebx, %r13d
 637              	.LVL51:
 638 043a 4989FF   		movq	%rdi, %r15
 639              	.LBE17:
 640              	.LBE16:
 165:RGB2YCbCr.c   ****     image_out->bytes_per_pixel = 3;
 641              		.loc 1 165 23
 642 043d 895E0C   		movl	%ebx, 12(%rsi)
 643 0440 4989F6   		movq	%rsi, %r14
 164:RGB2YCbCr.c   ****     image_out->height = height;
 644              		.loc 1 164 5 is_stmt 1
 165:RGB2YCbCr.c   ****     image_out->bytes_per_pixel = 3;
 645              		.loc 1 165 5
 166:RGB2YCbCr.c   ****     image_out->color_space = JCS_YCbCr;
 646              		.loc 1 166 5
 167:RGB2YCbCr.c   ****     image_out->color_space = JCS_YCbCr;
 647              		.loc 1 167 5
 648              	.LBB21:
 649              	.LBB18:
 650              		.loc 1 174 35 is_stmt 0
 651 0443 BB0A0000 		movl	$10, %ebx
 651      00
 652              	.LVL52:
 653              	.LBE18:
 654              	.LBE21:
 166:RGB2YCbCr.c   ****     image_out->color_space = JCS_YCbCr;
 655              		.loc 1 166 32
 656 0448 48894610 		movq	%rax, 16(%rsi)
 169:RGB2YCbCr.c   **** 
 657              		.loc 1 169 5 is_stmt 1
 169:RGB2YCbCr.c   **** 
 658              		.loc 1 169 15 is_stmt 0
 659 044c 31C0     		xorl	%eax, %eax
 660 044e E8000000 		call	get_wall_time
 660      00
 661              	.LVL53:
 662 0453 418D45FF 		leal	-1(%r13), %eax
 663 0457 89855CFE 		movl	%eax, -420(%rbp)
 663      FFFF
 664 045d 4489E8   		movl	%r13d, %eax
 665 0460 C1E805   		shrl	$5, %eax
 666 0463 C5FB1185 		vmovsd	%xmm0, -432(%rbp)
 666      50FEFFFF 
 667              	.LVL54:
 171:RGB2YCbCr.c   ****     {
 668              		.loc 1 171 5 is_stmt 1
 669              	.LBB22:
 171:RGB2YCbCr.c   ****     {
 670              		.loc 1 171 10
 171:RGB2YCbCr.c   ****     {
 671              		.loc 1 171 22
 672 046b 4C8D0C40 		leaq	(%rax,%rax,2), %r9
 673 046f 488B8568 		movq	-408(%rbp), %rax
 673      FEFFFF
 674 0476 49C1E105 		salq	$5, %r9
 675 047a 4D8D2401 		leaq	(%r9,%rax), %r12
 676 047e 4489E8   		movl	%r13d, %eax
 677 0481 83E0E0   		andl	$-32, %eax
 678 0484 898558FE 		movl	%eax, -424(%rbp)
 678      FFFF
 679              	.LVL55:
 680 048a 660F1F44 		.p2align 4,,10
 680      0000
 681              		.p2align 3
 682              	.L24:
 683              	.LBB19:
 684              		.loc 1 174 25
 685              		.loc 1 174 9 is_stmt 0
 686 0490 4585ED   		testl	%r13d, %r13d
 687 0493 0F8EDE0B 		jle	.L31
 687      0000
 688 0499 83BD5CFE 		cmpl	$30, -420(%rbp)
 688      FFFF1E
 689 04a0 0F86170C 		jbe	.L32
 689      0000
 690 04a6 488B9560 		movq	-416(%rbp), %rdx
 690      FEFFFF
 691 04ad 488B8568 		movq	-408(%rbp), %rax
 691      FEFFFF
 692              	.LVL56:
 693              		.p2align 4,,10
 694 04b4 0F1F4000 		.p2align 3
 695              	.L26:
 175:RGB2YCbCr.c   ****         {
 176:RGB2YCbCr.c   ****             /* R */
 177:RGB2YCbCr.c   ****             pixels_out[3*i + 0] = (unsigned char) (0.5 + 
 696              		.loc 1 177 13 is_stmt 1 discriminator 3
 178:RGB2YCbCr.c   ****                 RGB2YCbCr_offset[0] +
 179:RGB2YCbCr.c   ****                 RGB2YCbCr[0][0]*pixels_in[3*i + 0] + 
 697              		.loc 1 179 42 is_stmt 0 discriminator 3
 698 04b8 C5FE6F08 		vmovdqu	(%rax), %ymm1
 699 04bc C5FE6F60 		vmovdqu	64(%rax), %ymm4
 699      40
 700 04c1 4883C060 		addq	$96, %rax
 701 04c5 4883C260 		addq	$96, %rdx
 702 04c9 C5FE6F68 		vmovdqu	-64(%rax), %ymm5
 702      C0
 703 04ce C4E27500 		vpshufb	.LC13(%rip), %ymm1, %ymm3
 703      1D000000 
 703      00
 704 04d7 C4E25500 		vpshufb	.LC15(%rip), %ymm5, %ymm2
 704      15000000 
 704      00
 705 04e0 C4E3FD00 		vpermq	$78, %ymm3, %ymm0
 705      C34E
 706 04e6 C4E27500 		vpshufb	.LC14(%rip), %ymm1, %ymm3
 706      1D000000 
 706      00
 707 04ef C4E25500 		vpshufb	.LC21(%rip), %ymm5, %ymm6
 707      35000000 
 707      00
 708 04f8 C5E5EBD8 		vpor	%ymm0, %ymm3, %ymm3
 709 04fc C4E25D00 		vpshufb	.LC16(%rip), %ymm4, %ymm0
 709      05000000 
 709      00
 710 0505 C4E25500 		vpshufb	.LC27(%rip), %ymm5, %ymm5
 710      2D000000 
 710      00
 711 050e C5E5EBDA 		vpor	%ymm2, %ymm3, %ymm3
 712 0512 C4E3FD00 		vpermq	$78, %ymm0, %ymm2
 712      D04E
 713 0518 C4E25D00 		vpshufb	.LC18(%rip), %ymm4, %ymm0
 713      05000000 
 713      00
 714 0521 C4E26500 		vpshufb	.LC17(%rip), %ymm3, %ymm3
 714      1D000000 
 714      00
 715 052a C5FDEBC2 		vpor	%ymm2, %ymm0, %ymm0
 716 052e C4E27500 		vpshufb	.LC19(%rip), %ymm1, %ymm2
 716      15000000 
 716      00
 717 0537 C5E5EBD8 		vpor	%ymm0, %ymm3, %ymm3
 718 053b C4E3FD00 		vpermq	$78, %ymm2, %ymm0
 718      C24E
 719 0541 C4E27500 		vpshufb	.LC20(%rip), %ymm1, %ymm2
 719      15000000 
 719      00
 720 054a C5EDEBD0 		vpor	%ymm0, %ymm2, %ymm2
 721 054e C4E25D00 		vpshufb	.LC22(%rip), %ymm4, %ymm0
 721      05000000 
 721      00
 722 0557 C5EDEBD6 		vpor	%ymm6, %ymm2, %ymm2
 723 055b C4E3FD00 		vpermq	$78, %ymm0, %ymm6
 723      F04E
 724 0561 C4E25D00 		vpshufb	.LC24(%rip), %ymm4, %ymm0
 724      05000000 
 724      00
 725 056a C4E26D00 		vpshufb	.LC23(%rip), %ymm2, %ymm2
 725      15000000 
 725      00
 726 0573 C5FDEBC6 		vpor	%ymm6, %ymm0, %ymm0
 727 0577 C5EDEBD0 		vpor	%ymm0, %ymm2, %ymm2
 728 057b C4E27500 		vpshufb	.LC25(%rip), %ymm1, %ymm0
 728      05000000 
 728      00
 729 0584 C4E27500 		vpshufb	.LC26(%rip), %ymm1, %ymm1
 729      0D000000 
 729      00
 730 058d C4E3FD00 		vpermq	$78, %ymm0, %ymm0
 730      C04E
 731 0593 C5F5EBC0 		vpor	%ymm0, %ymm1, %ymm0
 732 0597 C4E25D00 		vpshufb	.LC28(%rip), %ymm4, %ymm1
 732      0D000000 
 732      00
 733 05a0 C5FDEBC5 		vpor	%ymm5, %ymm0, %ymm0
 734 05a4 C4E3FD00 		vpermq	$78, %ymm1, %ymm5
 734      E94E
 735 05aa C4E25D00 		vpshufb	.LC29(%rip), %ymm4, %ymm1
 735      0D000000 
 735      00
 736 05b3 C5F5EBCD 		vpor	%ymm5, %ymm1, %ymm1
 737 05b7 C4E27D30 		vpmovzxbw	%xmm3, %ymm4
 737      E3
 738 05bc C4E27D00 		vpshufb	.LC23(%rip), %ymm0, %ymm0
 738      05000000 
 738      00
 739 05c5 C5FDEBC1 		vpor	%ymm1, %ymm0, %ymm0
 740 05c9 C4E37D39 		vextracti128	$0x1, %ymm3, %xmm1
 740      D901
 741 05cf C4E27D33 		vpmovzxwd	%xmm4, %ymm3
 741      DC
 742 05d4 C4E27D30 		vpmovzxbw	%xmm1, %ymm1
 742      C9
 743              		.loc 1 179 32 discriminator 3
 744 05d9 C57C5BFB 		vcvtdq2ps	%ymm3, %ymm15
 745              		.loc 1 179 42 discriminator 3
 746 05dd C4E37D39 		vextracti128	$0x1, %ymm4, %xmm4
 746      E401
 747 05e3 C4E27D33 		vpmovzxwd	%xmm1, %ymm3
 747      D9
 748 05e8 C4E37D39 		vextracti128	$0x1, %ymm1, %xmm1
 748      C901
 749 05ee C4E27D33 		vpmovzxwd	%xmm4, %ymm4
 749      E4
 750 05f3 C4E27D33 		vpmovzxwd	%xmm1, %ymm1
 750      C9
 751              		.loc 1 179 32 discriminator 3
 752 05f8 C5FC5BDB 		vcvtdq2ps	%ymm3, %ymm3
 753 05fc C5FC295D 		vmovaps	%ymm3, -112(%rbp)
 753      90
 754 0601 C5FC5BFC 		vcvtdq2ps	%ymm4, %ymm7
 755 0605 C564590D 		vmulps	.LC30(%rip), %ymm3, %ymm9
 755      00000000 
 756 060d C5FC5BE9 		vcvtdq2ps	%ymm1, %ymm5
 180:RGB2YCbCr.c   ****                 RGB2YCbCr[0][1]*pixels_in[3*i + 1] + 
 757              		.loc 1 180 42 discriminator 3
 758 0611 C4E27D30 		vpmovzxbw	%xmm2, %ymm3
 758      DA
 759 0616 C4E37D39 		vextracti128	$0x1, %ymm2, %xmm1
 759      D101
 760 061c C4E27D30 		vpmovzxbw	%xmm1, %ymm1
 760      C9
 761 0621 C4E27D33 		vpmovzxwd	%xmm3, %ymm2
 761      D3
 762 0626 C4E37D39 		vextracti128	$0x1, %ymm3, %xmm3
 762      DB01
 179:RGB2YCbCr.c   ****                 RGB2YCbCr[0][1]*pixels_in[3*i + 1] + 
 763              		.loc 1 179 32 discriminator 3
 764 062c C5FC297D 		vmovaps	%ymm7, -80(%rbp)
 764      B0
 765 0631 C504592D 		vmulps	.LC30(%rip), %ymm15, %ymm13
 765      00000000 
 766              		.loc 1 180 32 discriminator 3
 767 0639 C5FC5BE2 		vcvtdq2ps	%ymm2, %ymm4
 768              		.loc 1 180 42 discriminator 3
 769 063d C4E27D33 		vpmovzxwd	%xmm1, %ymm2
 769      D1
 770 0642 C4E37D39 		vextracti128	$0x1, %ymm1, %xmm1
 770      C901
 771 0648 C4E27D33 		vpmovzxwd	%xmm3, %ymm3
 771      DB
 772 064d C4E27D33 		vpmovzxwd	%xmm1, %ymm1
 772      C9
 773              		.loc 1 180 32 discriminator 3
 774 0652 C57C5BC2 		vcvtdq2ps	%ymm2, %ymm8
 179:RGB2YCbCr.c   ****                 RGB2YCbCr[0][1]*pixels_in[3*i + 1] + 
 775              		.loc 1 179 32 discriminator 3
 776 0656 C5FC29AD 		vmovaps	%ymm5, -144(%rbp)
 776      70FFFFFF 
 777 065e C544591D 		vmulps	.LC30(%rip), %ymm7, %ymm11
 777      00000000 
 778              		.loc 1 180 32 discriminator 3
 779 0666 C57C5BF3 		vcvtdq2ps	%ymm3, %ymm14
 780 066a C5FC5BC9 		vcvtdq2ps	%ymm1, %ymm1
 781 066e C5FC29A5 		vmovaps	%ymm4, -176(%rbp)
 781      50FFFFFF 
 179:RGB2YCbCr.c   ****                 RGB2YCbCr[0][1]*pixels_in[3*i + 1] + 
 782              		.loc 1 179 32 discriminator 3
 783 0676 C5D4593D 		vmulps	.LC30(%rip), %ymm5, %ymm7
 783      00000000 
 784              		.loc 1 180 32 discriminator 3
 785 067e C57C29B5 		vmovaps	%ymm14, -208(%rbp)
 785      30FFFFFF 
 786 0686 C55C5925 		vmulps	.LC31(%rip), %ymm4, %ymm12
 786      00000000 
 787 068e C50C5915 		vmulps	.LC31(%rip), %ymm14, %ymm10
 787      00000000 
 788 0696 C57C2985 		vmovaps	%ymm8, -240(%rbp)
 788      10FFFFFF 
 789 069e C5F45935 		vmulps	.LC31(%rip), %ymm1, %ymm6
 789      00000000 
 790 06a6 C5FC298D 		vmovaps	%ymm1, -272(%rbp)
 790      F0FEFFFF 
 181:RGB2YCbCr.c   ****                 RGB2YCbCr[0][2]*pixels_in[3*i + 2]);
 791              		.loc 1 181 42 discriminator 3
 792 06ae C4E27D30 		vpmovzxbw	%xmm0, %ymm1
 792      C8
 793 06b3 C4E37D39 		vextracti128	$0x1, %ymm0, %xmm0
 793      C001
 794 06b9 C4E27D33 		vpmovzxwd	%xmm1, %ymm2
 794      D1
 795 06be C4E37D39 		vextracti128	$0x1, %ymm1, %xmm1
 795      C901
 796 06c4 C4E27D30 		vpmovzxbw	%xmm0, %ymm0
 796      C0
 182:RGB2YCbCr.c   ****             /* G */
 183:RGB2YCbCr.c   ****             pixels_out[3*i + 1] = (unsigned char) (0.5 + 
 184:RGB2YCbCr.c   ****                 RGB2YCbCr_offset[1] +
 185:RGB2YCbCr.c   ****                 RGB2YCbCr[1][0]*pixels_in[3*i + 0] + 
 797              		.loc 1 185 32 discriminator 3
 798 06c9 C57C29BD 		vmovaps	%ymm15, -400(%rbp)
 798      70FEFFFF 
 181:RGB2YCbCr.c   ****                 RGB2YCbCr[0][2]*pixels_in[3*i + 2]);
 799              		.loc 1 181 42 discriminator 3
 800 06d1 C4E27D33 		vpmovzxwd	%xmm1, %ymm1
 800      C9
 181:RGB2YCbCr.c   ****                 RGB2YCbCr[0][2]*pixels_in[3*i + 2]);
 801              		.loc 1 181 32 discriminator 3
 802 06d6 C5FC5BD2 		vcvtdq2ps	%ymm2, %ymm2
 803 06da C5FC2995 		vmovaps	%ymm2, -304(%rbp)
 803      D0FEFFFF 
 804 06e2 C5EC592D 		vmulps	.LC32(%rip), %ymm2, %ymm5
 804      00000000 
 805 06ea C57C5BF1 		vcvtdq2ps	%ymm1, %ymm14
 181:RGB2YCbCr.c   ****                 RGB2YCbCr[0][2]*pixels_in[3*i + 2]);
 806              		.loc 1 181 42 discriminator 3
 807 06ee C4E27D33 		vpmovzxwd	%xmm0, %ymm1
 807      C8
 181:RGB2YCbCr.c   ****                 RGB2YCbCr[0][2]*pixels_in[3*i + 2]);
 808              		.loc 1 181 32 discriminator 3
 809 06f3 C57C29B5 		vmovaps	%ymm14, -336(%rbp)
 809      B0FEFFFF 
 810 06fb C58C5915 		vmulps	.LC32(%rip), %ymm14, %ymm2
 810      00000000 
 179:RGB2YCbCr.c   ****                 RGB2YCbCr[0][1]*pixels_in[3*i + 1] + 
 811              		.loc 1 179 32 discriminator 3
 812 0703 C4417C5A 		vcvtps2pd	%xmm13, %ymm14
 812      F5
 181:RGB2YCbCr.c   ****                 RGB2YCbCr[0][2]*pixels_in[3*i + 2]);
 813              		.loc 1 181 32 discriminator 3
 814 0708 C5FC5BC9 		vcvtdq2ps	%ymm1, %ymm1
 179:RGB2YCbCr.c   ****                 RGB2YCbCr[0][1]*pixels_in[3*i + 1] + 
 815              		.loc 1 179 32 discriminator 3
 816 070c C4437D19 		vextractf128	$0x1, %ymm13, %xmm13
 816      ED01
 181:RGB2YCbCr.c   ****                 RGB2YCbCr[0][2]*pixels_in[3*i + 2]);
 817              		.loc 1 181 32 discriminator 3
 818 0712 C5F45925 		vmulps	.LC32(%rip), %ymm1, %ymm4
 818      00000000 
 819 071a C5FC298D 		vmovaps	%ymm1, -368(%rbp)
 819      90FEFFFF 
 179:RGB2YCbCr.c   ****                 RGB2YCbCr[0][1]*pixels_in[3*i + 1] + 
 820              		.loc 1 179 32 discriminator 3
 821 0722 C4417C5A 		vcvtps2pd	%xmm13, %ymm13
 821      ED
 178:RGB2YCbCr.c   ****                 RGB2YCbCr[0][0]*pixels_in[3*i + 0] + 
 822              		.loc 1 178 37 discriminator 3
 823 0727 C58D580D 		vaddpd	.LC33(%rip), %ymm14, %ymm1
 823      00000000 
 824 072f C515582D 		vaddpd	.LC33(%rip), %ymm13, %ymm13
 824      00000000 
 180:RGB2YCbCr.c   ****                 RGB2YCbCr[0][2]*pixels_in[3*i + 2]);
 825              		.loc 1 180 32 discriminator 3
 826 0737 C4417C5A 		vcvtps2pd	%xmm12, %ymm14
 826      F4
 827 073c C4437D19 		vextractf128	$0x1, %ymm12, %xmm12
 827      E401
 181:RGB2YCbCr.c   ****             /* G */
 828              		.loc 1 181 42 discriminator 3
 829 0742 C4E37D39 		vextracti128	$0x1, %ymm0, %xmm0
 829      C001
 180:RGB2YCbCr.c   ****                 RGB2YCbCr[0][2]*pixels_in[3*i + 2]);
 830              		.loc 1 180 32 discriminator 3
 831 0748 C4417C5A 		vcvtps2pd	%xmm12, %ymm12
 831      E4
 832 074d C53C5905 		vmulps	.LC31(%rip), %ymm8, %ymm8
 832      00000000 
 181:RGB2YCbCr.c   ****             /* G */
 833              		.loc 1 181 42 discriminator 3
 834 0755 C4E27D33 		vpmovzxwd	%xmm0, %ymm0
 834      C0
 179:RGB2YCbCr.c   ****                 RGB2YCbCr[0][1]*pixels_in[3*i + 1] + 
 835              		.loc 1 179 52 discriminator 3
 836 075a C4417558 		vaddpd	%ymm14, %ymm1, %ymm14
 836      F6
 181:RGB2YCbCr.c   ****             /* G */
 837              		.loc 1 181 32 discriminator 3
 838 075f C5FC5ACD 		vcvtps2pd	%xmm5, %ymm1
 839 0763 C4E37D19 		vextractf128	$0x1, %ymm5, %xmm5
 839      ED01
 840 0769 C5FC5BC0 		vcvtdq2ps	%ymm0, %ymm0
 179:RGB2YCbCr.c   ****                 RGB2YCbCr[0][1]*pixels_in[3*i + 1] + 
 841              		.loc 1 179 52 discriminator 3
 842 076d C4411558 		vaddpd	%ymm12, %ymm13, %ymm12
 842      E4
 181:RGB2YCbCr.c   ****             /* G */
 843              		.loc 1 181 32 discriminator 3
 844 0772 C5FC5AED 		vcvtps2pd	%xmm5, %ymm5
 845 0776 C5FC591D 		vmulps	.LC32(%rip), %ymm0, %ymm3
 845      00000000 
 180:RGB2YCbCr.c   ****                 RGB2YCbCr[0][2]*pixels_in[3*i + 2]);
 846              		.loc 1 180 52 discriminator 3
 847 077e C58D58C9 		vaddpd	%ymm1, %ymm14, %ymm1
 848              		.loc 1 185 32 discriminator 3
 849 0782 C5045935 		vmulps	.LC36(%rip), %ymm15, %ymm14
 849      00000000 
 180:RGB2YCbCr.c   ****                 RGB2YCbCr[0][2]*pixels_in[3*i + 2]);
 850              		.loc 1 180 52 discriminator 3
 851 078a C51D58E5 		vaddpd	%ymm5, %ymm12, %ymm12
 177:RGB2YCbCr.c   ****                 RGB2YCbCr_offset[0] +
 852              		.loc 1 177 35 discriminator 3
 853 078e C5FDE6C9 		vcvttpd2dqy	%ymm1, %xmm1
 854 0792 C4417DE6 		vcvttpd2dqy	%ymm12, %xmm12
 854      E4
 855 0797 C4C37538 		vinserti128	$0x1, %xmm12, %ymm1, %ymm1
 855      CC01
 179:RGB2YCbCr.c   ****                 RGB2YCbCr[0][1]*pixels_in[3*i + 1] + 
 856              		.loc 1 179 32 discriminator 3
 857 079d C4417C5A 		vcvtps2pd	%xmm11, %ymm12
 857      E3
 858 07a2 C4437D19 		vextractf128	$0x1, %ymm11, %xmm11
 858      DB01
 178:RGB2YCbCr.c   ****                 RGB2YCbCr[0][0]*pixels_in[3*i + 0] + 
 859              		.loc 1 178 37 discriminator 3
 860 07a8 C59D582D 		vaddpd	.LC33(%rip), %ymm12, %ymm5
 860      00000000 
 179:RGB2YCbCr.c   ****                 RGB2YCbCr[0][1]*pixels_in[3*i + 1] + 
 861              		.loc 1 179 32 discriminator 3
 862 07b0 C4417C5A 		vcvtps2pd	%xmm11, %ymm11
 862      DB
 180:RGB2YCbCr.c   ****                 RGB2YCbCr[0][2]*pixels_in[3*i + 2]);
 863              		.loc 1 180 32 discriminator 3
 864 07b5 C4417C5A 		vcvtps2pd	%xmm10, %ymm12
 864      E2
 865              		.loc 1 185 32 discriminator 3
 866 07ba C4417C5A 		vcvtps2pd	%xmm14, %ymm15
 866      FE
 178:RGB2YCbCr.c   ****                 RGB2YCbCr[0][0]*pixels_in[3*i + 0] + 
 867              		.loc 1 178 37 discriminator 3
 868 07bf C525581D 		vaddpd	.LC33(%rip), %ymm11, %ymm11
 868      00000000 
 180:RGB2YCbCr.c   ****                 RGB2YCbCr[0][2]*pixels_in[3*i + 2]);
 869              		.loc 1 180 32 discriminator 3
 870 07c7 C4437D19 		vextractf128	$0x1, %ymm10, %xmm10
 870      D201
 871              		.loc 1 185 32 discriminator 3
 872 07cd C4437D19 		vextractf128	$0x1, %ymm14, %xmm14
 872      F601
 180:RGB2YCbCr.c   ****                 RGB2YCbCr[0][2]*pixels_in[3*i + 2]);
 873              		.loc 1 180 32 discriminator 3
 874 07d3 C4417C5A 		vcvtps2pd	%xmm10, %ymm10
 874      D2
 177:RGB2YCbCr.c   ****                 RGB2YCbCr_offset[0] +
 875              		.loc 1 177 35 discriminator 3
 876 07d8 C5F5DB0D 		vpand	.LC34(%rip), %ymm1, %ymm1
 876      00000000 
 877              		.loc 1 185 32 discriminator 3
 878 07e0 C4417C5A 		vcvtps2pd	%xmm14, %ymm14
 878      F6
 179:RGB2YCbCr.c   ****                 RGB2YCbCr[0][1]*pixels_in[3*i + 1] + 
 879              		.loc 1 179 52 discriminator 3
 880 07e5 C4415558 		vaddpd	%ymm12, %ymm5, %ymm12
 880      E4
 181:RGB2YCbCr.c   ****             /* G */
 881              		.loc 1 181 32 discriminator 3
 882 07ea C5FC5AEA 		vcvtps2pd	%xmm2, %ymm5
 883 07ee C4E37D19 		vextractf128	$0x1, %ymm2, %xmm2
 883      D201
 179:RGB2YCbCr.c   ****                 RGB2YCbCr[0][1]*pixels_in[3*i + 1] + 
 884              		.loc 1 179 52 discriminator 3
 885 07f4 C4412558 		vaddpd	%ymm10, %ymm11, %ymm10
 885      D2
 181:RGB2YCbCr.c   ****             /* G */
 886              		.loc 1 181 32 discriminator 3
 887 07f9 C5FC5AD2 		vcvtps2pd	%xmm2, %ymm2
 180:RGB2YCbCr.c   ****                 RGB2YCbCr[0][2]*pixels_in[3*i + 2]);
 888              		.loc 1 180 52 discriminator 3
 889 07fd C59D58ED 		vaddpd	%ymm5, %ymm12, %ymm5
 890 0801 C52D58D2 		vaddpd	%ymm2, %ymm10, %ymm10
 177:RGB2YCbCr.c   ****                 RGB2YCbCr_offset[0] +
 891              		.loc 1 177 35 discriminator 3
 892 0805 C5FDE6ED 		vcvttpd2dqy	%ymm5, %xmm5
 893 0809 C4417DE6 		vcvttpd2dqy	%ymm10, %xmm10
 893      D2
 894 080e C4C35538 		vinserti128	$0x1, %xmm10, %ymm5, %ymm5
 894      EA01
 895 0814 C5D5DB2D 		vpand	.LC34(%rip), %ymm5, %ymm5
 895      00000000 
 896 081c C4E2752B 		vpackusdw	%ymm5, %ymm1, %ymm1
 896      CD
 179:RGB2YCbCr.c   ****                 RGB2YCbCr[0][1]*pixels_in[3*i + 1] + 
 897              		.loc 1 179 32 discriminator 3
 898 0821 C4C17C5A 		vcvtps2pd	%xmm9, %ymm5
 898      E9
 899 0826 C4437D19 		vextractf128	$0x1, %ymm9, %xmm9
 899      C901
 178:RGB2YCbCr.c   ****                 RGB2YCbCr[0][0]*pixels_in[3*i + 0] + 
 900              		.loc 1 178 37 discriminator 3
 901 082c C5D55815 		vaddpd	.LC33(%rip), %ymm5, %ymm2
 901      00000000 
 179:RGB2YCbCr.c   ****                 RGB2YCbCr[0][1]*pixels_in[3*i + 1] + 
 902              		.loc 1 179 32 discriminator 3
 903 0834 C4417C5A 		vcvtps2pd	%xmm9, %ymm9
 903      C9
 178:RGB2YCbCr.c   ****                 RGB2YCbCr[0][0]*pixels_in[3*i + 0] + 
 904              		.loc 1 178 37 discriminator 3
 905 0839 C535580D 		vaddpd	.LC33(%rip), %ymm9, %ymm9
 905      00000000 
 180:RGB2YCbCr.c   ****                 RGB2YCbCr[0][2]*pixels_in[3*i + 2]);
 906              		.loc 1 180 32 discriminator 3
 907 0841 C4C17C5A 		vcvtps2pd	%xmm8, %ymm5
 907      E8
 177:RGB2YCbCr.c   ****                 RGB2YCbCr_offset[0] +
 908              		.loc 1 177 35 discriminator 3
 909 0846 C4E3FD00 		vpermq	$216, %ymm1, %ymm1
 909      C9D8
 180:RGB2YCbCr.c   ****                 RGB2YCbCr[0][2]*pixels_in[3*i + 2]);
 910              		.loc 1 180 32 discriminator 3
 911 084c C4437D19 		vextractf128	$0x1, %ymm8, %xmm8
 911      C001
 177:RGB2YCbCr.c   ****                 RGB2YCbCr_offset[0] +
 912              		.loc 1 177 35 discriminator 3
 913 0852 C5F5DB0D 		vpand	.LC35(%rip), %ymm1, %ymm1
 913      00000000 
 179:RGB2YCbCr.c   ****                 RGB2YCbCr[0][1]*pixels_in[3*i + 1] + 
 914              		.loc 1 179 52 discriminator 3
 915 085a C5ED58ED 		vaddpd	%ymm5, %ymm2, %ymm5
 180:RGB2YCbCr.c   ****                 RGB2YCbCr[0][2]*pixels_in[3*i + 2]);
 916              		.loc 1 180 32 discriminator 3
 917 085e C4417C5A 		vcvtps2pd	%xmm8, %ymm8
 917      C0
 181:RGB2YCbCr.c   ****             /* G */
 918              		.loc 1 181 32 discriminator 3
 919 0863 C5FC5AD4 		vcvtps2pd	%xmm4, %ymm2
 920 0867 C4E37D19 		vextractf128	$0x1, %ymm4, %xmm4
 920      E401
 179:RGB2YCbCr.c   ****                 RGB2YCbCr[0][1]*pixels_in[3*i + 1] + 
 921              		.loc 1 179 52 discriminator 3
 922 086d C4413558 		vaddpd	%ymm8, %ymm9, %ymm8
 922      C0
 181:RGB2YCbCr.c   ****             /* G */
 923              		.loc 1 181 32 discriminator 3
 924 0872 C5FC5AE4 		vcvtps2pd	%xmm4, %ymm4
 180:RGB2YCbCr.c   ****                 RGB2YCbCr[0][2]*pixels_in[3*i + 2]);
 925              		.loc 1 180 52 discriminator 3
 926 0876 C5D558D2 		vaddpd	%ymm2, %ymm5, %ymm2
 179:RGB2YCbCr.c   ****                 RGB2YCbCr[0][1]*pixels_in[3*i + 1] + 
 927              		.loc 1 179 32 discriminator 3
 928 087a C5FC5AEF 		vcvtps2pd	%xmm7, %ymm5
 929 087e C4E37D19 		vextractf128	$0x1, %ymm7, %xmm7
 929      FF01
 180:RGB2YCbCr.c   ****                 RGB2YCbCr[0][2]*pixels_in[3*i + 2]);
 930              		.loc 1 180 52 discriminator 3
 931 0884 C53D58C4 		vaddpd	%ymm4, %ymm8, %ymm8
 179:RGB2YCbCr.c   ****                 RGB2YCbCr[0][1]*pixels_in[3*i + 1] + 
 932              		.loc 1 179 32 discriminator 3
 933 0888 C5FC5AFF 		vcvtps2pd	%xmm7, %ymm7
 178:RGB2YCbCr.c   ****                 RGB2YCbCr[0][0]*pixels_in[3*i + 0] + 
 934              		.loc 1 178 37 discriminator 3
 935 088c C5D55825 		vaddpd	.LC33(%rip), %ymm5, %ymm4
 935      00000000 
 180:RGB2YCbCr.c   ****                 RGB2YCbCr[0][2]*pixels_in[3*i + 2]);
 936              		.loc 1 180 32 discriminator 3
 937 0894 C5FC5AEE 		vcvtps2pd	%xmm6, %ymm5
 178:RGB2YCbCr.c   ****                 RGB2YCbCr[0][0]*pixels_in[3*i + 0] + 
 938              		.loc 1 178 37 discriminator 3
 939 0898 C5C5583D 		vaddpd	.LC33(%rip), %ymm7, %ymm7
 939      00000000 
 180:RGB2YCbCr.c   ****                 RGB2YCbCr[0][2]*pixels_in[3*i + 2]);
 940              		.loc 1 180 32 discriminator 3
 941 08a0 C4E37D19 		vextractf128	$0x1, %ymm6, %xmm6
 941      F601
 942 08a6 C5FC5AF6 		vcvtps2pd	%xmm6, %ymm6
 177:RGB2YCbCr.c   ****                 RGB2YCbCr_offset[0] +
 943              		.loc 1 177 35 discriminator 3
 944 08aa C5FDE6D2 		vcvttpd2dqy	%ymm2, %xmm2
 179:RGB2YCbCr.c   ****                 RGB2YCbCr[0][1]*pixels_in[3*i + 1] + 
 945              		.loc 1 179 52 discriminator 3
 946 08ae C5DD58ED 		vaddpd	%ymm5, %ymm4, %ymm5
 181:RGB2YCbCr.c   ****             /* G */
 947              		.loc 1 181 32 discriminator 3
 948 08b2 C5FC5AE3 		vcvtps2pd	%xmm3, %ymm4
 949 08b6 C4E37D19 		vextractf128	$0x1, %ymm3, %xmm3
 949      DB01
 177:RGB2YCbCr.c   ****                 RGB2YCbCr_offset[0] +
 950              		.loc 1 177 35 discriminator 3
 951 08bc C4417DE6 		vcvttpd2dqy	%ymm8, %xmm8
 951      C0
 179:RGB2YCbCr.c   ****                 RGB2YCbCr[0][1]*pixels_in[3*i + 1] + 
 952              		.loc 1 179 52 discriminator 3
 953 08c1 C5C558F6 		vaddpd	%ymm6, %ymm7, %ymm6
 181:RGB2YCbCr.c   ****             /* G */
 954              		.loc 1 181 32 discriminator 3
 955 08c5 C5FC5ADB 		vcvtps2pd	%xmm3, %ymm3
 177:RGB2YCbCr.c   ****                 RGB2YCbCr_offset[0] +
 956              		.loc 1 177 35 discriminator 3
 957 08c9 C4C36D38 		vinserti128	$0x1, %xmm8, %ymm2, %ymm2
 957      D001
 958 08cf C5EDDB15 		vpand	.LC34(%rip), %ymm2, %ymm2
 958      00000000 
 959              		.loc 1 185 32 discriminator 3
 960 08d7 C5FC287D 		vmovaps	-80(%rbp), %ymm7
 960      B0
 961 08dc C5445925 		vmulps	.LC36(%rip), %ymm7, %ymm12
 961      00000000 
 180:RGB2YCbCr.c   ****                 RGB2YCbCr[0][2]*pixels_in[3*i + 2]);
 962              		.loc 1 180 52 discriminator 3
 963 08e4 C5D558E4 		vaddpd	%ymm4, %ymm5, %ymm4
 964              		.loc 1 185 32 discriminator 3
 965 08e8 C5FC28AD 		vmovaps	-144(%rbp), %ymm5
 965      70FFFFFF 
 966 08f0 C5545905 		vmulps	.LC36(%rip), %ymm5, %ymm8
 966      00000000 
 180:RGB2YCbCr.c   ****                 RGB2YCbCr[0][2]*pixels_in[3*i + 2]);
 967              		.loc 1 180 52 discriminator 3
 968 08f8 C5CD58F3 		vaddpd	%ymm3, %ymm6, %ymm6
 969              		.loc 1 185 32 discriminator 3
 970 08fc C5FC285D 		vmovaps	-112(%rbp), %ymm3
 970      90
 971 0901 C5645915 		vmulps	.LC36(%rip), %ymm3, %ymm10
 971      00000000 
 177:RGB2YCbCr.c   ****                 RGB2YCbCr_offset[0] +
 972              		.loc 1 177 35 discriminator 3
 973 0909 C5FDE6E4 		vcvttpd2dqy	%ymm4, %xmm4
 974 090d C5FDE6F6 		vcvttpd2dqy	%ymm6, %xmm6
 975 0911 C4E35D38 		vinserti128	$0x1, %xmm6, %ymm4, %ymm4
 975      E601
 976 0917 C5DDDB25 		vpand	.LC34(%rip), %ymm4, %ymm4
 976      00000000 
 977 091f C4E26D2B 		vpackusdw	%ymm4, %ymm2, %ymm2
 977      D4
 978 0924 C4E3FD00 		vpermq	$216, %ymm2, %ymm2
 978      D2D8
 979 092a C5EDDB15 		vpand	.LC35(%rip), %ymm2, %ymm2
 979      00000000 
 186:RGB2YCbCr.c   ****                 RGB2YCbCr[1][1]*pixels_in[3*i + 1] + 
 980              		.loc 1 186 32 discriminator 3
 981 0932 C5FC28A5 		vmovaps	-176(%rbp), %ymm4
 981      50FFFFFF 
 982 093a C55C592D 		vmulps	.LC37(%rip), %ymm4, %ymm13
 982      00000000 
 184:RGB2YCbCr.c   ****                 RGB2YCbCr[1][0]*pixels_in[3*i + 0] + 
 983              		.loc 1 184 37 discriminator 3
 984 0942 C50D5835 		vaddpd	.LC39(%rip), %ymm14, %ymm14
 984      00000000 
 985              		.loc 1 186 32 discriminator 3
 986 094a C5FC28B5 		vmovaps	-272(%rbp), %ymm6
 986      F0FEFFFF 
 177:RGB2YCbCr.c   ****                 RGB2YCbCr_offset[0] +
 987              		.loc 1 177 35 discriminator 3
 988 0952 C5F567CA 		vpackuswb	%ymm2, %ymm1, %ymm1
 989              		.loc 1 186 32 discriminator 3
 990 0956 C5FC2895 		vmovaps	-208(%rbp), %ymm2
 990      30FFFFFF 
 991 095e C5CC593D 		vmulps	.LC37(%rip), %ymm6, %ymm7
 991      00000000 
 187:RGB2YCbCr.c   ****                 RGB2YCbCr[1][2]*pixels_in[3*i + 2]);
 992              		.loc 1 187 32 discriminator 3
 993 0966 C5FC28AD 		vmovaps	-336(%rbp), %ymm5
 993      B0FEFFFF 
 177:RGB2YCbCr.c   ****                 RGB2YCbCr_offset[0] +
 994              		.loc 1 177 35 discriminator 3
 995 096e C4E3FD00 		vpermq	$216, %ymm1, %ymm1
 995      C9D8
 183:RGB2YCbCr.c   ****                 RGB2YCbCr_offset[1] +
 996              		.loc 1 183 13 is_stmt 1 discriminator 3
 186:RGB2YCbCr.c   ****                 RGB2YCbCr[1][2]*pixels_in[3*i + 2]);
 997              		.loc 1 186 32 is_stmt 0 discriminator 3
 998 0974 C56C591D 		vmulps	.LC37(%rip), %ymm2, %ymm11
 998      00000000 
 999              		.loc 1 187 32 discriminator 3
 1000 097c C5FC2895 		vmovaps	-304(%rbp), %ymm2
 1000      D0FEFFFF 
 1001 0984 C5EC5935 		vmulps	.LC38(%rip), %ymm2, %ymm6
 1001      00000000 
 184:RGB2YCbCr.c   ****                 RGB2YCbCr[1][0]*pixels_in[3*i + 0] + 
 1002              		.loc 1 184 37 discriminator 3
 1003 098c C5855815 		vaddpd	.LC39(%rip), %ymm15, %ymm2
 1003      00000000 
 186:RGB2YCbCr.c   ****                 RGB2YCbCr[1][2]*pixels_in[3*i + 2]);
 1004              		.loc 1 186 32 discriminator 3
 1005 0994 C4417C5A 		vcvtps2pd	%xmm13, %ymm15
 1005      FD
 1006 0999 C4437D19 		vextractf128	$0x1, %ymm13, %xmm13
 1006      ED01
 1007 099f C57C288D 		vmovaps	-240(%rbp), %ymm9
 1007      10FFFFFF 
 1008 09a7 C4417C5A 		vcvtps2pd	%xmm13, %ymm13
 1008      ED
 185:RGB2YCbCr.c   ****                 RGB2YCbCr[1][1]*pixels_in[3*i + 1] + 
 1009              		.loc 1 185 52 discriminator 3
 1010 09ac C4410D58 		vaddpd	%ymm13, %ymm14, %ymm13
 1010      ED
 1011              		.loc 1 187 32 discriminator 3
 1012 09b1 C5D45925 		vmulps	.LC38(%rip), %ymm5, %ymm4
 1012      00000000 
 1013 09b9 C5FC28AD 		vmovaps	-368(%rbp), %ymm5
 1013      90FEFFFF 
 185:RGB2YCbCr.c   ****                 RGB2YCbCr[1][1]*pixels_in[3*i + 1] + 
 1014              		.loc 1 185 52 discriminator 3
 1015 09c1 C4416D58 		vaddpd	%ymm15, %ymm2, %ymm15
 1015      FF
 186:RGB2YCbCr.c   ****                 RGB2YCbCr[1][2]*pixels_in[3*i + 2]);
 1016              		.loc 1 186 32 discriminator 3
 1017 09c6 C534590D 		vmulps	.LC37(%rip), %ymm9, %ymm9
 1017      00000000 
 1018              		.loc 1 187 32 discriminator 3
 1019 09ce C5D4592D 		vmulps	.LC38(%rip), %ymm5, %ymm5
 1019      00000000 
 1020 09d6 C5FC5AD6 		vcvtps2pd	%xmm6, %ymm2
 1021 09da C4E37D19 		vextractf128	$0x1, %ymm6, %xmm6
 1021      F601
 186:RGB2YCbCr.c   ****                 RGB2YCbCr[1][2]*pixels_in[3*i + 2]);
 1022              		.loc 1 186 52 discriminator 3
 1023 09e0 C58558D2 		vaddpd	%ymm2, %ymm15, %ymm2
 1024              		.loc 1 187 32 discriminator 3
 1025 09e4 C5FC5AF6 		vcvtps2pd	%xmm6, %ymm6
 186:RGB2YCbCr.c   ****                 RGB2YCbCr[1][2]*pixels_in[3*i + 2]);
 1026              		.loc 1 186 52 discriminator 3
 1027 09e8 C51558EE 		vaddpd	%ymm6, %ymm13, %ymm13
 1028              		.loc 1 187 32 discriminator 3
 1029 09ec C5FC591D 		vmulps	.LC38(%rip), %ymm0, %ymm3
 1029      00000000 
 188:RGB2YCbCr.c   ****             /* B */
 189:RGB2YCbCr.c   ****             pixels_out[3*i + 2] =  (unsigned char) (0.5 + 
 190:RGB2YCbCr.c   ****                 RGB2YCbCr_offset[2] +
 191:RGB2YCbCr.c   ****                 RGB2YCbCr[2][0]*pixels_in[3*i + 0] + 
 1030              		.loc 1 191 32 discriminator 3
 1031 09f4 C57C28BD 		vmovaps	-400(%rbp), %ymm15
 1031      70FEFFFF 
 183:RGB2YCbCr.c   ****                 RGB2YCbCr_offset[1] +
 1032              		.loc 1 183 35 discriminator 3
 1033 09fc C4417DE6 		vcvttpd2dqy	%ymm13, %xmm13
 1033      ED
 1034 0a01 C5FDE6D2 		vcvttpd2dqy	%ymm2, %xmm2
 1035 0a05 C4C36D38 		vinserti128	$0x1, %xmm13, %ymm2, %ymm2
 1035      D501
 185:RGB2YCbCr.c   ****                 RGB2YCbCr[1][1]*pixels_in[3*i + 1] + 
 1036              		.loc 1 185 32 discriminator 3
 1037 0a0b C4417C5A 		vcvtps2pd	%xmm12, %ymm13
 1037      EC
 1038 0a10 C4437D19 		vextractf128	$0x1, %ymm12, %xmm12
 1038      E401
 184:RGB2YCbCr.c   ****                 RGB2YCbCr[1][0]*pixels_in[3*i + 0] + 
 1039              		.loc 1 184 37 discriminator 3
 1040 0a16 C5955835 		vaddpd	.LC39(%rip), %ymm13, %ymm6
 1040      00000000 
 186:RGB2YCbCr.c   ****                 RGB2YCbCr[1][2]*pixels_in[3*i + 2]);
 1041              		.loc 1 186 32 discriminator 3
 1042 0a1e C4417C5A 		vcvtps2pd	%xmm11, %ymm13
 1042      EB
 1043 0a23 C4437D19 		vextractf128	$0x1, %ymm11, %xmm11
 1043      DB01
 185:RGB2YCbCr.c   ****                 RGB2YCbCr[1][1]*pixels_in[3*i + 1] + 
 1044              		.loc 1 185 32 discriminator 3
 1045 0a29 C4417C5A 		vcvtps2pd	%xmm12, %ymm12
 1045      E4
 184:RGB2YCbCr.c   ****                 RGB2YCbCr[1][0]*pixels_in[3*i + 0] + 
 1046              		.loc 1 184 37 discriminator 3
 1047 0a2e C51D5825 		vaddpd	.LC39(%rip), %ymm12, %ymm12
 1047      00000000 
 186:RGB2YCbCr.c   ****                 RGB2YCbCr[1][2]*pixels_in[3*i + 2]);
 1048              		.loc 1 186 32 discriminator 3
 1049 0a36 C4417C5A 		vcvtps2pd	%xmm11, %ymm11
 1049      DB
 183:RGB2YCbCr.c   ****                 RGB2YCbCr_offset[1] +
 1050              		.loc 1 183 35 discriminator 3
 1051 0a3b C5EDDB15 		vpand	.LC34(%rip), %ymm2, %ymm2
 1051      00000000 
 185:RGB2YCbCr.c   ****                 RGB2YCbCr[1][1]*pixels_in[3*i + 1] + 
 1052              		.loc 1 185 52 discriminator 3
 1053 0a43 C4414D58 		vaddpd	%ymm13, %ymm6, %ymm13
 1053      ED
 187:RGB2YCbCr.c   ****             /* B */
 1054              		.loc 1 187 32 discriminator 3
 1055 0a48 C5FC5AF4 		vcvtps2pd	%xmm4, %ymm6
 1056 0a4c C4E37D19 		vextractf128	$0x1, %ymm4, %xmm4
 1056      E401
 185:RGB2YCbCr.c   ****                 RGB2YCbCr[1][1]*pixels_in[3*i + 1] + 
 1057              		.loc 1 185 52 discriminator 3
 1058 0a52 C4411D58 		vaddpd	%ymm11, %ymm12, %ymm11
 1058      DB
 187:RGB2YCbCr.c   ****             /* B */
 1059              		.loc 1 187 32 discriminator 3
 1060 0a57 C5FC5AE4 		vcvtps2pd	%xmm4, %ymm4
 186:RGB2YCbCr.c   ****                 RGB2YCbCr[1][2]*pixels_in[3*i + 2]);
 1061              		.loc 1 186 52 discriminator 3
 1062 0a5b C59558F6 		vaddpd	%ymm6, %ymm13, %ymm6
 1063 0a5f C52558DC 		vaddpd	%ymm4, %ymm11, %ymm11
 183:RGB2YCbCr.c   ****                 RGB2YCbCr_offset[1] +
 1064              		.loc 1 183 35 discriminator 3
 1065 0a63 C5FDE6F6 		vcvttpd2dqy	%ymm6, %xmm6
 1066 0a67 C4417DE6 		vcvttpd2dqy	%ymm11, %xmm11
 1066      DB
 1067 0a6c C4C34D38 		vinserti128	$0x1, %xmm11, %ymm6, %ymm6
 1067      F301
 1068 0a72 C5CDDB35 		vpand	.LC34(%rip), %ymm6, %ymm6
 1068      00000000 
 1069 0a7a C4E26D2B 		vpackusdw	%ymm6, %ymm2, %ymm2
 1069      D6
 185:RGB2YCbCr.c   ****                 RGB2YCbCr[1][1]*pixels_in[3*i + 1] + 
 1070              		.loc 1 185 32 discriminator 3
 1071 0a7f C4C17C5A 		vcvtps2pd	%xmm10, %ymm6
 1071      F2
 1072 0a84 C4437D19 		vextractf128	$0x1, %ymm10, %xmm10
 1072      D201
 184:RGB2YCbCr.c   ****                 RGB2YCbCr[1][0]*pixels_in[3*i + 0] + 
 1073              		.loc 1 184 37 discriminator 3
 1074 0a8a C5CD5825 		vaddpd	.LC39(%rip), %ymm6, %ymm4
 1074      00000000 
 185:RGB2YCbCr.c   ****                 RGB2YCbCr[1][1]*pixels_in[3*i + 1] + 
 1075              		.loc 1 185 32 discriminator 3
 1076 0a92 C4417C5A 		vcvtps2pd	%xmm10, %ymm10
 1076      D2
 184:RGB2YCbCr.c   ****                 RGB2YCbCr[1][0]*pixels_in[3*i + 0] + 
 1077              		.loc 1 184 37 discriminator 3
 1078 0a97 C52D5815 		vaddpd	.LC39(%rip), %ymm10, %ymm10
 1078      00000000 
 186:RGB2YCbCr.c   ****                 RGB2YCbCr[1][2]*pixels_in[3*i + 2]);
 1079              		.loc 1 186 32 discriminator 3
 1080 0a9f C4C17C5A 		vcvtps2pd	%xmm9, %ymm6
 1080      F1
 183:RGB2YCbCr.c   ****                 RGB2YCbCr_offset[1] +
 1081              		.loc 1 183 35 discriminator 3
 1082 0aa4 C4E3FD00 		vpermq	$216, %ymm2, %ymm2
 1082      D2D8
 186:RGB2YCbCr.c   ****                 RGB2YCbCr[1][2]*pixels_in[3*i + 2]);
 1083              		.loc 1 186 32 discriminator 3
 1084 0aaa C4437D19 		vextractf128	$0x1, %ymm9, %xmm9
 1084      C901
 183:RGB2YCbCr.c   ****                 RGB2YCbCr_offset[1] +
 1085              		.loc 1 183 35 discriminator 3
 1086 0ab0 C5EDDB15 		vpand	.LC35(%rip), %ymm2, %ymm2
 1086      00000000 
 185:RGB2YCbCr.c   ****                 RGB2YCbCr[1][1]*pixels_in[3*i + 1] + 
 1087              		.loc 1 185 52 discriminator 3
 1088 0ab8 C5DD58F6 		vaddpd	%ymm6, %ymm4, %ymm6
 186:RGB2YCbCr.c   ****                 RGB2YCbCr[1][2]*pixels_in[3*i + 2]);
 1089              		.loc 1 186 32 discriminator 3
 1090 0abc C4417C5A 		vcvtps2pd	%xmm9, %ymm9
 1090      C9
 187:RGB2YCbCr.c   ****             /* B */
 1091              		.loc 1 187 32 discriminator 3
 1092 0ac1 C5FC5AE5 		vcvtps2pd	%xmm5, %ymm4
 1093 0ac5 C4E37D19 		vextractf128	$0x1, %ymm5, %xmm5
 1093      ED01
 185:RGB2YCbCr.c   ****                 RGB2YCbCr[1][1]*pixels_in[3*i + 1] + 
 1094              		.loc 1 185 52 discriminator 3
 1095 0acb C4412D58 		vaddpd	%ymm9, %ymm10, %ymm9
 1095      C9
 187:RGB2YCbCr.c   ****             /* B */
 1096              		.loc 1 187 32 discriminator 3
 1097 0ad0 C5FC5AED 		vcvtps2pd	%xmm5, %ymm5
 186:RGB2YCbCr.c   ****                 RGB2YCbCr[1][2]*pixels_in[3*i + 2]);
 1098              		.loc 1 186 52 discriminator 3
 1099 0ad4 C5CD58E4 		vaddpd	%ymm4, %ymm6, %ymm4
 185:RGB2YCbCr.c   ****                 RGB2YCbCr[1][1]*pixels_in[3*i + 1] + 
 1100              		.loc 1 185 32 discriminator 3
 1101 0ad8 C4C17C5A 		vcvtps2pd	%xmm8, %ymm6
 1101      F0
 1102 0add C4437D19 		vextractf128	$0x1, %ymm8, %xmm8
 1102      C001
 186:RGB2YCbCr.c   ****                 RGB2YCbCr[1][2]*pixels_in[3*i + 2]);
 1103              		.loc 1 186 52 discriminator 3
 1104 0ae3 C53558CD 		vaddpd	%ymm5, %ymm9, %ymm9
 185:RGB2YCbCr.c   ****                 RGB2YCbCr[1][1]*pixels_in[3*i + 1] + 
 1105              		.loc 1 185 32 discriminator 3
 1106 0ae7 C4417C5A 		vcvtps2pd	%xmm8, %ymm8
 1106      C0
 184:RGB2YCbCr.c   ****                 RGB2YCbCr[1][0]*pixels_in[3*i + 0] + 
 1107              		.loc 1 184 37 discriminator 3
 1108 0aec C5CD582D 		vaddpd	.LC39(%rip), %ymm6, %ymm5
 1108      00000000 
 186:RGB2YCbCr.c   ****                 RGB2YCbCr[1][2]*pixels_in[3*i + 2]);
 1109              		.loc 1 186 32 discriminator 3
 1110 0af4 C5FC5AF7 		vcvtps2pd	%xmm7, %ymm6
 184:RGB2YCbCr.c   ****                 RGB2YCbCr[1][0]*pixels_in[3*i + 0] + 
 1111              		.loc 1 184 37 discriminator 3
 1112 0af8 C53D5805 		vaddpd	.LC39(%rip), %ymm8, %ymm8
 1112      00000000 
 186:RGB2YCbCr.c   ****                 RGB2YCbCr[1][2]*pixels_in[3*i + 2]);
 1113              		.loc 1 186 32 discriminator 3
 1114 0b00 C4E37D19 		vextractf128	$0x1, %ymm7, %xmm7
 1114      FF01
 1115 0b06 C5FC5AFF 		vcvtps2pd	%xmm7, %ymm7
 183:RGB2YCbCr.c   ****                 RGB2YCbCr_offset[1] +
 1116              		.loc 1 183 35 discriminator 3
 1117 0b0a C5FDE6E4 		vcvttpd2dqy	%ymm4, %xmm4
 185:RGB2YCbCr.c   ****                 RGB2YCbCr[1][1]*pixels_in[3*i + 1] + 
 1118              		.loc 1 185 52 discriminator 3
 1119 0b0e C5D558F6 		vaddpd	%ymm6, %ymm5, %ymm6
 187:RGB2YCbCr.c   ****             /* B */
 1120              		.loc 1 187 32 discriminator 3
 1121 0b12 C5FC5AEB 		vcvtps2pd	%xmm3, %ymm5
 1122 0b16 C4E37D19 		vextractf128	$0x1, %ymm3, %xmm3
 1122      DB01
 183:RGB2YCbCr.c   ****                 RGB2YCbCr_offset[1] +
 1123              		.loc 1 183 35 discriminator 3
 1124 0b1c C4417DE6 		vcvttpd2dqy	%ymm9, %xmm9
 1124      C9
 185:RGB2YCbCr.c   ****                 RGB2YCbCr[1][1]*pixels_in[3*i + 1] + 
 1125              		.loc 1 185 52 discriminator 3
 1126 0b21 C5BD58FF 		vaddpd	%ymm7, %ymm8, %ymm7
 187:RGB2YCbCr.c   ****             /* B */
 1127              		.loc 1 187 32 discriminator 3
 1128 0b25 C5FC5ADB 		vcvtps2pd	%xmm3, %ymm3
 183:RGB2YCbCr.c   ****                 RGB2YCbCr_offset[1] +
 1129              		.loc 1 183 35 discriminator 3
 1130 0b29 C4C35D38 		vinserti128	$0x1, %xmm9, %ymm4, %ymm4
 1130      E101
 1131 0b2f C5DDDB25 		vpand	.LC34(%rip), %ymm4, %ymm4
 1131      00000000 
 186:RGB2YCbCr.c   ****                 RGB2YCbCr[1][2]*pixels_in[3*i + 2]);
 1132              		.loc 1 186 52 discriminator 3
 1133 0b37 C5CD58ED 		vaddpd	%ymm5, %ymm6, %ymm5
 1134              		.loc 1 191 32 discriminator 3
 1135 0b3b C5FC2875 		vmovaps	-80(%rbp), %ymm6
 1135      B0
 186:RGB2YCbCr.c   ****                 RGB2YCbCr[1][2]*pixels_in[3*i + 2]);
 1136              		.loc 1 186 52 discriminator 3
 1137 0b40 C5C558FB 		vaddpd	%ymm3, %ymm7, %ymm7
 183:RGB2YCbCr.c   ****                 RGB2YCbCr_offset[1] +
 1138              		.loc 1 183 35 discriminator 3
 1139 0b44 C5FDE6ED 		vcvttpd2dqy	%ymm5, %xmm5
 1140 0b48 C5FDE6FF 		vcvttpd2dqy	%ymm7, %xmm7
 1141 0b4c C4E35538 		vinserti128	$0x1, %xmm7, %ymm5, %ymm5
 1141      EF01
 1142 0b52 C5D5DB2D 		vpand	.LC34(%rip), %ymm5, %ymm5
 1142      00000000 
 1143              		.loc 1 191 32 discriminator 3
 1144 0b5a C584593D 		vmulps	.LC38(%rip), %ymm15, %ymm7
 1144      00000000 
 183:RGB2YCbCr.c   ****                 RGB2YCbCr_offset[1] +
 1145              		.loc 1 183 35 discriminator 3
 1146 0b62 C4E25D2B 		vpackusdw	%ymm5, %ymm4, %ymm4
 1146      E5
 1147 0b67 C4E3FD00 		vpermq	$216, %ymm4, %ymm4
 1147      E4D8
 1148 0b6d C5DDDB25 		vpand	.LC35(%rip), %ymm4, %ymm4
 1148      00000000 
 1149              		.loc 1 191 32 discriminator 3
 1150 0b75 C5CC5935 		vmulps	.LC38(%rip), %ymm6, %ymm6
 1150      00000000 
 1151 0b7d C5FC285D 		vmovaps	-112(%rbp), %ymm3
 1151      90
 183:RGB2YCbCr.c   ****                 RGB2YCbCr_offset[1] +
 1152              		.loc 1 183 35 discriminator 3
 1153 0b82 C5ED67D4 		vpackuswb	%ymm4, %ymm2, %ymm2
 192:RGB2YCbCr.c   ****                 RGB2YCbCr[2][1]*pixels_in[3*i + 1] + 
 1154              		.loc 1 192 32 discriminator 3
 1155 0b86 C5FC28A5 		vmovaps	-176(%rbp), %ymm4
 1155      50FFFFFF 
 1156 0b8e C57C28B5 		vmovaps	-208(%rbp), %ymm14
 1156      30FFFFFF 
 1157 0b96 C55C591D 		vmulps	.LC40(%rip), %ymm4, %ymm11
 1157      00000000 
 193:RGB2YCbCr.c   ****                 RGB2YCbCr[2][2]*pixels_in[3*i + 2]);
 1158              		.loc 1 193 32 discriminator 3
 1159 0b9e C5FC28A5 		vmovaps	-368(%rbp), %ymm4
 1159      90FEFFFF 
 183:RGB2YCbCr.c   ****                 RGB2YCbCr_offset[1] +
 1160              		.loc 1 183 35 discriminator 3
 1161 0ba6 C4E3FD00 		vpermq	$216, %ymm2, %ymm2
 1161      D2D8
 189:RGB2YCbCr.c   ****                 RGB2YCbCr_offset[2] +
 1162              		.loc 1 189 13 is_stmt 1 discriminator 3
 191:RGB2YCbCr.c   ****                 RGB2YCbCr[2][1]*pixels_in[3*i + 1] + 
 1163              		.loc 1 191 32 is_stmt 0 discriminator 3
 1164 0bac C5E4592D 		vmulps	.LC38(%rip), %ymm3, %ymm5
 1164      00000000 
 1165 0bb4 C5FC289D 		vmovaps	-144(%rbp), %ymm3
 1165      70FFFFFF 
 1166 0bbc C5645905 		vmulps	.LC38(%rip), %ymm3, %ymm8
 1166      00000000 
 192:RGB2YCbCr.c   ****                 RGB2YCbCr[2][2]*pixels_in[3*i + 2]);
 1167              		.loc 1 192 32 discriminator 3
 1168 0bc4 C5FC289D 		vmovaps	-272(%rbp), %ymm3
 1168      F0FEFFFF 
 1169 0bcc C5645925 		vmulps	.LC40(%rip), %ymm3, %ymm12
 1169      00000000 
 1170              		.loc 1 193 32 discriminator 3
 1171 0bd4 C5FC289D 		vmovaps	-304(%rbp), %ymm3
 1171      D0FEFFFF 
 1172 0bdc C564593D 		vmulps	.LC41(%rip), %ymm3, %ymm15
 1172      00000000 
 191:RGB2YCbCr.c   ****                 RGB2YCbCr[2][1]*pixels_in[3*i + 1] + 
 1173              		.loc 1 191 32 discriminator 3
 1174 0be4 C5FC5ADF 		vcvtps2pd	%xmm7, %ymm3
 190:RGB2YCbCr.c   ****                 RGB2YCbCr[2][0]*pixels_in[3*i + 0] + 
 1175              		.loc 1 190 37 discriminator 3
 1176 0be8 C5E5581D 		vaddpd	.LC39(%rip), %ymm3, %ymm3
 1176      00000000 
 1177              		.loc 1 193 32 discriminator 3
 1178 0bf0 C55C592D 		vmulps	.LC41(%rip), %ymm4, %ymm13
 1178      00000000 
 192:RGB2YCbCr.c   ****                 RGB2YCbCr[2][2]*pixels_in[3*i + 2]);
 1179              		.loc 1 192 32 discriminator 3
 1180 0bf8 C4C17C5A 		vcvtps2pd	%xmm11, %ymm4
 1180      E3
 1181 0bfd C4437D19 		vextractf128	$0x1, %ymm11, %xmm11
 1181      DB01
 1182 0c03 C57C288D 		vmovaps	-240(%rbp), %ymm9
 1182      10FFFFFF 
 1183 0c0b C4417C5A 		vcvtps2pd	%xmm11, %ymm11
 1183      DB
 1184 0c10 C50C5915 		vmulps	.LC40(%rip), %ymm14, %ymm10
 1184      00000000 
 1185              		.loc 1 193 32 discriminator 3
 1186 0c18 C57C28B5 		vmovaps	-336(%rbp), %ymm14
 1186      B0FEFFFF 
 191:RGB2YCbCr.c   ****                 RGB2YCbCr[2][1]*pixels_in[3*i + 1] + 
 1187              		.loc 1 191 52 discriminator 3
 1188 0c20 C5E558DC 		vaddpd	%ymm4, %ymm3, %ymm3
 1189              		.loc 1 193 32 discriminator 3
 1190 0c24 C50C5935 		vmulps	.LC41(%rip), %ymm14, %ymm14
 1190      00000000 
 192:RGB2YCbCr.c   ****                 RGB2YCbCr[2][2]*pixels_in[3*i + 2]);
 1191              		.loc 1 192 32 discriminator 3
 1192 0c2c C534590D 		vmulps	.LC40(%rip), %ymm9, %ymm9
 1192      00000000 
 1193              		.loc 1 193 32 discriminator 3
 1194 0c34 C4C17C5A 		vcvtps2pd	%xmm15, %ymm4
 1194      E7
 1195 0c39 C4437D19 		vextractf128	$0x1, %ymm15, %xmm15
 1195      FF01
 192:RGB2YCbCr.c   ****                 RGB2YCbCr[2][2]*pixels_in[3*i + 2]);
 1196              		.loc 1 192 52 discriminator 3
 1197 0c3f C5E558DC 		vaddpd	%ymm4, %ymm3, %ymm3
 191:RGB2YCbCr.c   ****                 RGB2YCbCr[2][1]*pixels_in[3*i + 1] + 
 1198              		.loc 1 191 32 discriminator 3
 1199 0c43 C4E37D19 		vextractf128	$0x1, %ymm7, %xmm4
 1199      FC01
 1200              		.loc 1 193 32 discriminator 3
 1201 0c49 C4417C5A 		vcvtps2pd	%xmm15, %ymm15
 1201      FF
 191:RGB2YCbCr.c   ****                 RGB2YCbCr[2][1]*pixels_in[3*i + 1] + 
 1202              		.loc 1 191 32 discriminator 3
 1203 0c4e C5FC5AE4 		vcvtps2pd	%xmm4, %ymm4
 190:RGB2YCbCr.c   ****                 RGB2YCbCr[2][0]*pixels_in[3*i + 0] + 
 1204              		.loc 1 190 37 discriminator 3
 1205 0c52 C5DD5825 		vaddpd	.LC39(%rip), %ymm4, %ymm4
 1205      00000000 
 192:RGB2YCbCr.c   ****                 RGB2YCbCr[2][2]*pixels_in[3*i + 2]);
 1206              		.loc 1 192 32 discriminator 3
 1207 0c5a C4C17C5A 		vcvtps2pd	%xmm10, %ymm7
 1207      FA
 1208 0c5f C4437D19 		vextractf128	$0x1, %ymm10, %xmm10
 1208      D201
 1209 0c65 C4417C5A 		vcvtps2pd	%xmm10, %ymm10
 1209      D2
 1210              		.loc 1 193 32 discriminator 3
 1211 0c6a C5FC5905 		vmulps	.LC41(%rip), %ymm0, %ymm0
 1211      00000000 
 191:RGB2YCbCr.c   ****                 RGB2YCbCr[2][1]*pixels_in[3*i + 1] + 
 1212              		.loc 1 191 52 discriminator 3
 1213 0c72 C4C15D58 		vaddpd	%ymm11, %ymm4, %ymm4
 1213      E3
 192:RGB2YCbCr.c   ****                 RGB2YCbCr[2][2]*pixels_in[3*i + 2]);
 1214              		.loc 1 192 52 discriminator 3
 1215 0c77 C4415D58 		vaddpd	%ymm15, %ymm4, %ymm15
 1215      FF
 189:RGB2YCbCr.c   ****                 RGB2YCbCr_offset[2] +
 1216              		.loc 1 189 36 discriminator 3
 1217 0c7c C5FDE6E3 		vcvttpd2dqy	%ymm3, %xmm4
 191:RGB2YCbCr.c   ****                 RGB2YCbCr[2][1]*pixels_in[3*i + 1] + 
 1218              		.loc 1 191 32 discriminator 3
 1219 0c80 C5FC5ADE 		vcvtps2pd	%xmm6, %ymm3
 1220 0c84 C4E37D19 		vextractf128	$0x1, %ymm6, %xmm6
 1220      F601
 190:RGB2YCbCr.c   ****                 RGB2YCbCr[2][0]*pixels_in[3*i + 0] + 
 1221              		.loc 1 190 37 discriminator 3
 1222 0c8a C5E5581D 		vaddpd	.LC39(%rip), %ymm3, %ymm3
 1222      00000000 
 191:RGB2YCbCr.c   ****                 RGB2YCbCr[2][1]*pixels_in[3*i + 1] + 
 1223              		.loc 1 191 32 discriminator 3
 1224 0c92 C5FC5AF6 		vcvtps2pd	%xmm6, %ymm6
 190:RGB2YCbCr.c   ****                 RGB2YCbCr[2][0]*pixels_in[3*i + 0] + 
 1225              		.loc 1 190 37 discriminator 3
 1226 0c96 C5CD5835 		vaddpd	.LC39(%rip), %ymm6, %ymm6
 1226      00000000 
 189:RGB2YCbCr.c   ****                 RGB2YCbCr_offset[2] +
 1227              		.loc 1 189 36 discriminator 3
 1228 0c9e C4417DE6 		vcvttpd2dqy	%ymm15, %xmm15
 1228      FF
 1229 0ca3 C4C35D38 		vinserti128	$0x1, %xmm15, %ymm4, %ymm4
 1229      E701
 191:RGB2YCbCr.c   ****                 RGB2YCbCr[2][1]*pixels_in[3*i + 1] + 
 1230              		.loc 1 191 52 discriminator 3
 1231 0ca9 C5E558DF 		vaddpd	%ymm7, %ymm3, %ymm3
 1232 0cad C4414D58 		vaddpd	%ymm10, %ymm6, %ymm10
 1232      D2
 1233              		.loc 1 193 32 discriminator 3
 1234 0cb2 C4C17C5A 		vcvtps2pd	%xmm14, %ymm7
 1234      FE
 192:RGB2YCbCr.c   ****                 RGB2YCbCr[2][2]*pixels_in[3*i + 2]);
 1235              		.loc 1 192 32 discriminator 3
 1236 0cb7 C4C17C5A 		vcvtps2pd	%xmm9, %ymm6
 1236      F1
 1237              		.loc 1 193 32 discriminator 3
 1238 0cbc C4437D19 		vextractf128	$0x1, %ymm14, %xmm14
 1238      F601
 192:RGB2YCbCr.c   ****                 RGB2YCbCr[2][2]*pixels_in[3*i + 2]);
 1239              		.loc 1 192 32 discriminator 3
 1240 0cc2 C4437D19 		vextractf128	$0x1, %ymm9, %xmm9
 1240      C901
 1241              		.loc 1 193 32 discriminator 3
 1242 0cc8 C4417C5A 		vcvtps2pd	%xmm14, %ymm14
 1242      F6
 192:RGB2YCbCr.c   ****                 RGB2YCbCr[2][2]*pixels_in[3*i + 2]);
 1243              		.loc 1 192 32 discriminator 3
 1244 0ccd C4417C5A 		vcvtps2pd	%xmm9, %ymm9
 1244      C9
 192:RGB2YCbCr.c   ****                 RGB2YCbCr[2][2]*pixels_in[3*i + 2]);
 1245              		.loc 1 192 52 discriminator 3
 1246 0cd2 C5E558DF 		vaddpd	%ymm7, %ymm3, %ymm3
 1247 0cd6 C4412D58 		vaddpd	%ymm14, %ymm10, %ymm14
 1247      F6
 189:RGB2YCbCr.c   ****                 RGB2YCbCr_offset[2] +
 1248              		.loc 1 189 36 discriminator 3
 1249 0cdb C5FDE6DB 		vcvttpd2dqy	%ymm3, %xmm3
 1250 0cdf C4417DE6 		vcvttpd2dqy	%ymm14, %xmm14
 1250      F6
 1251 0ce4 C4436538 		vinserti128	$0x1, %xmm14, %ymm3, %ymm14
 1251      F601
 1252 0cea C5DDDB1D 		vpand	.LC34(%rip), %ymm4, %ymm3
 1252      00000000 
 191:RGB2YCbCr.c   ****                 RGB2YCbCr[2][1]*pixels_in[3*i + 1] + 
 1253              		.loc 1 191 32 discriminator 3
 1254 0cf2 C5FC5AE5 		vcvtps2pd	%xmm5, %ymm4
 1255 0cf6 C4E37D19 		vextractf128	$0x1, %ymm5, %xmm5
 1255      ED01
 190:RGB2YCbCr.c   ****                 RGB2YCbCr[2][0]*pixels_in[3*i + 0] + 
 1256              		.loc 1 190 37 discriminator 3
 1257 0cfc C5DD5825 		vaddpd	.LC39(%rip), %ymm4, %ymm4
 1257      00000000 
 189:RGB2YCbCr.c   ****                 RGB2YCbCr_offset[2] +
 1258              		.loc 1 189 36 discriminator 3
 1259 0d04 C50DDB35 		vpand	.LC34(%rip), %ymm14, %ymm14
 1259      00000000 
 191:RGB2YCbCr.c   ****                 RGB2YCbCr[2][1]*pixels_in[3*i + 1] + 
 1260              		.loc 1 191 32 discriminator 3
 1261 0d0c C5FC5AED 		vcvtps2pd	%xmm5, %ymm5
 190:RGB2YCbCr.c   ****                 RGB2YCbCr[2][0]*pixels_in[3*i + 0] + 
 1262              		.loc 1 190 37 discriminator 3
 1263 0d10 C5D5582D 		vaddpd	.LC39(%rip), %ymm5, %ymm5
 1263      00000000 
 189:RGB2YCbCr.c   ****                 RGB2YCbCr_offset[2] +
 1264              		.loc 1 189 36 discriminator 3
 1265 0d18 C4C2652B 		vpackusdw	%ymm14, %ymm3, %ymm3
 1265      DE
 191:RGB2YCbCr.c   ****                 RGB2YCbCr[2][1]*pixels_in[3*i + 1] + 
 1266              		.loc 1 191 52 discriminator 3
 1267 0d1d C5DD58E6 		vaddpd	%ymm6, %ymm4, %ymm4
 1268              		.loc 1 193 32 discriminator 3
 1269 0d21 C4C17C5A 		vcvtps2pd	%xmm13, %ymm6
 1269      F5
 1270 0d26 C4437D19 		vextractf128	$0x1, %ymm13, %xmm13
 1270      ED01
 189:RGB2YCbCr.c   ****                 RGB2YCbCr_offset[2] +
 1271              		.loc 1 189 36 discriminator 3
 1272 0d2c C4E3FD00 		vpermq	$216, %ymm3, %ymm3
 1272      DBD8
 191:RGB2YCbCr.c   ****                 RGB2YCbCr[2][1]*pixels_in[3*i + 1] + 
 1273              		.loc 1 191 52 discriminator 3
 1274 0d32 C4415558 		vaddpd	%ymm9, %ymm5, %ymm9
 1274      C9
 1275              		.loc 1 193 32 discriminator 3
 1276 0d37 C4417C5A 		vcvtps2pd	%xmm13, %ymm13
 1276      ED
 192:RGB2YCbCr.c   ****                 RGB2YCbCr[2][2]*pixels_in[3*i + 2]);
 1277              		.loc 1 192 32 discriminator 3
 1278 0d3c C4C17C5A 		vcvtps2pd	%xmm12, %ymm5
 1278      EC
 1279 0d41 C4437D19 		vextractf128	$0x1, %ymm12, %xmm12
 1279      E401
 1280 0d47 C4417C5A 		vcvtps2pd	%xmm12, %ymm12
 1280      E4
 192:RGB2YCbCr.c   ****                 RGB2YCbCr[2][2]*pixels_in[3*i + 2]);
 1281              		.loc 1 192 52 discriminator 3
 1282 0d4c C5DD58E6 		vaddpd	%ymm6, %ymm4, %ymm4
 1283 0d50 C4413558 		vaddpd	%ymm13, %ymm9, %ymm13
 1283      ED
 189:RGB2YCbCr.c   ****                 RGB2YCbCr_offset[2] +
 1284              		.loc 1 189 36 discriminator 3
 1285 0d55 C5FDE6E4 		vcvttpd2dqy	%ymm4, %xmm4
 1286 0d59 C4417DE6 		vcvttpd2dqy	%ymm13, %xmm13
 1286      ED
 1287 0d5e C4435D38 		vinserti128	$0x1, %xmm13, %ymm4, %ymm13
 1287      ED01
 191:RGB2YCbCr.c   ****                 RGB2YCbCr[2][1]*pixels_in[3*i + 1] + 
 1288              		.loc 1 191 32 discriminator 3
 1289 0d64 C4C17C5A 		vcvtps2pd	%xmm8, %ymm4
 1289      E0
 1290 0d69 C4437D19 		vextractf128	$0x1, %ymm8, %xmm8
 1290      C001
 190:RGB2YCbCr.c   ****                 RGB2YCbCr[2][0]*pixels_in[3*i + 0] + 
 1291              		.loc 1 190 37 discriminator 3
 1292 0d6f C5DD5825 		vaddpd	.LC39(%rip), %ymm4, %ymm4
 1292      00000000 
 191:RGB2YCbCr.c   ****                 RGB2YCbCr[2][1]*pixels_in[3*i + 1] + 
 1293              		.loc 1 191 32 discriminator 3
 1294 0d77 C4417C5A 		vcvtps2pd	%xmm8, %ymm8
 1294      C0
 190:RGB2YCbCr.c   ****                 RGB2YCbCr[2][0]*pixels_in[3*i + 0] + 
 1295              		.loc 1 190 37 discriminator 3
 1296 0d7c C53D5805 		vaddpd	.LC39(%rip), %ymm8, %ymm8
 1296      00000000 
 191:RGB2YCbCr.c   ****                 RGB2YCbCr[2][1]*pixels_in[3*i + 1] + 
 1297              		.loc 1 191 52 discriminator 3
 1298 0d84 C5DD58E5 		vaddpd	%ymm5, %ymm4, %ymm4
 1299 0d88 C4413D58 		vaddpd	%ymm12, %ymm8, %ymm12
 1299      E4
 1300              		.loc 1 193 32 discriminator 3
 1301 0d8d C5FC5AE8 		vcvtps2pd	%xmm0, %ymm5
 1302 0d91 C4E37D19 		vextractf128	$0x1, %ymm0, %xmm0
 1302      C001
 1303 0d97 C5FC5AC0 		vcvtps2pd	%xmm0, %ymm0
 192:RGB2YCbCr.c   ****                 RGB2YCbCr[2][2]*pixels_in[3*i + 2]);
 1304              		.loc 1 192 52 discriminator 3
 1305 0d9b C5DD58E5 		vaddpd	%ymm5, %ymm4, %ymm4
 1306 0d9f C59D58C0 		vaddpd	%ymm0, %ymm12, %ymm0
 189:RGB2YCbCr.c   ****                 RGB2YCbCr_offset[2] +
 1307              		.loc 1 189 36 discriminator 3
 1308 0da3 C5FDE6E4 		vcvttpd2dqy	%ymm4, %xmm4
 1309 0da7 C5FDE6C0 		vcvttpd2dqy	%ymm0, %xmm0
 1310 0dab C4E35D38 		vinserti128	$0x1, %xmm0, %ymm4, %ymm4
 1310      E001
 1311 0db1 C595DB05 		vpand	.LC34(%rip), %ymm13, %ymm0
 1311      00000000 
 1312 0db9 C55DDB2D 		vpand	.LC34(%rip), %ymm4, %ymm13
 1312      00000000 
 1313 0dc1 C5E5DB1D 		vpand	.LC35(%rip), %ymm3, %ymm3
 1313      00000000 
 189:RGB2YCbCr.c   ****                 RGB2YCbCr_offset[2] +
 1314              		.loc 1 189 33 discriminator 3
 1315 0dc9 C4E27500 		vpshufb	.LC42(%rip), %ymm1, %ymm4
 1315      25000000 
 1315      00
 1316 0dd2 C4E3FD00 		vpermq	$78, %ymm4, %ymm6
 1316      F44E
 1317 0dd8 C5FD6F3D 		vmovdqa	.LC53(%rip), %ymm7
 1317      00000000 
 1318 0de0 C4E27500 		vpshufb	.LC44(%rip), %ymm1, %ymm4
 1318      25000000 
 1318      00
 189:RGB2YCbCr.c   ****                 RGB2YCbCr_offset[2] +
 1319              		.loc 1 189 36 discriminator 3
 1320 0de9 C4C27D2B 		vpackusdw	%ymm13, %ymm0, %ymm0
 1320      C5
 189:RGB2YCbCr.c   ****                 RGB2YCbCr_offset[2] +
 1321              		.loc 1 189 33 discriminator 3
 1322 0dee C5DDEBE6 		vpor	%ymm6, %ymm4, %ymm4
 189:RGB2YCbCr.c   ****                 RGB2YCbCr_offset[2] +
 1323              		.loc 1 189 36 discriminator 3
 1324 0df2 C4E3FD00 		vpermq	$216, %ymm0, %ymm0
 1324      C0D8
 1325 0df8 C5FDDB05 		vpand	.LC35(%rip), %ymm0, %ymm0
 1325      00000000 
 1326 0e00 C5E567C0 		vpackuswb	%ymm0, %ymm3, %ymm0
 1327 0e04 C4E3FD00 		vpermq	$216, %ymm0, %ymm3
 1327      D8D8
 189:RGB2YCbCr.c   ****                 RGB2YCbCr_offset[2] +
 1328              		.loc 1 189 33 discriminator 3
 1329 0e0a C4E26D00 		vpshufb	.LC43(%rip), %ymm2, %ymm0
 1329      05000000 
 1329      00
 1330 0e13 C4E3FD00 		vpermq	$78, %ymm0, %ymm5
 1330      E84E
 1331 0e19 C4E26D00 		vpshufb	.LC45(%rip), %ymm2, %ymm0
 1331      05000000 
 1331      00
 1332 0e22 C5FDEBC5 		vpor	%ymm5, %ymm0, %ymm0
 1333 0e26 C5DDEBE0 		vpor	%ymm0, %ymm4, %ymm4
 1334 0e2a C4E26500 		vpshufb	.LC46(%rip), %ymm3, %ymm0
 1334      05000000 
 1334      00
 1335 0e33 C4E25D00 		vpshufb	.LC47(%rip), %ymm4, %ymm4
 1335      25000000 
 1335      00
 1336 0e3c C4E3FD00 		vpermq	$78, %ymm0, %ymm5
 1336      E84E
 1337 0e42 C4E26500 		vpshufb	.LC48(%rip), %ymm3, %ymm0
 1337      05000000 
 1337      00
 1338 0e4b C5FDEBC5 		vpor	%ymm5, %ymm0, %ymm0
 1339 0e4f C4E26D00 		vpshufb	.LC51(%rip), %ymm2, %ymm5
 1339      2D000000 
 1339      00
 1340 0e58 C5DDEBE0 		vpor	%ymm0, %ymm4, %ymm4
 1341 0e5c C4E27500 		vpshufb	.LC49(%rip), %ymm1, %ymm0
 1341      05000000 
 1341      00
 1342 0e65 C5FE7F62 		vmovdqu	%ymm4, -96(%rdx)
 1342      A0
 1343 0e6a C4E3FD00 		vpermq	$78, %ymm0, %ymm4
 1343      E04E
 1344 0e70 C4E27500 		vpshufb	.LC50(%rip), %ymm1, %ymm0
 1344      05000000 
 1344      00
 1345 0e79 C5FDEBC4 		vpor	%ymm4, %ymm0, %ymm0
 1346 0e7d C4E26500 		vpshufb	.LC52(%rip), %ymm3, %ymm4
 1346      25000000 
 1346      00
 1347 0e86 C5FDEBC5 		vpor	%ymm5, %ymm0, %ymm0
 1348 0e8a C4E37D4C 		vpblendvb	%ymm7, %ymm4, %ymm0, %ymm0
 1348      C470
 1349 0e90 C4E26D00 		vpshufb	.LC55(%rip), %ymm2, %ymm4
 1349      25000000 
 1349      00
 1350 0e99 C4E26D00 		vpshufb	.LC57(%rip), %ymm2, %ymm2
 1350      15000000 
 1350      00
 1351 0ea2 C5FE7F42 		vmovdqu	%ymm0, -64(%rdx)
 1351      C0
 1352 0ea7 C4E3FD00 		vpermq	$78, %ymm4, %ymm4
 1352      E44E
 1353 0ead C4E27500 		vpshufb	.LC54(%rip), %ymm1, %ymm0
 1353      05000000 
 1353      00
 1354 0eb6 C4E3FD00 		vpermq	$78, %ymm0, %ymm5
 1354      E84E
 1355 0ebc C5EDEBD4 		vpor	%ymm4, %ymm2, %ymm2
 1356 0ec0 C4E27500 		vpshufb	.LC56(%rip), %ymm1, %ymm0
 1356      05000000 
 1356      00
 1357 0ec9 C4E26500 		vpshufb	.LC58(%rip), %ymm3, %ymm1
 1357      0D000000 
 1357      00
 1358 0ed2 C5FDEBC5 		vpor	%ymm5, %ymm0, %ymm0
 1359 0ed6 C5FDEBC2 		vpor	%ymm2, %ymm0, %ymm0
 1360 0eda C4E3FD00 		vpermq	$78, %ymm1, %ymm2
 1360      D14E
 1361 0ee0 C4E26500 		vpshufb	.LC60(%rip), %ymm3, %ymm1
 1361      0D000000 
 1361      00
 1362 0ee9 C4E27D00 		vpshufb	.LC59(%rip), %ymm0, %ymm0
 1362      05000000 
 1362      00
 1363 0ef2 C5F5EBCA 		vpor	%ymm2, %ymm1, %ymm1
 1364 0ef6 C5FDEBC1 		vpor	%ymm1, %ymm0, %ymm0
 1365 0efa C5FE7F42 		vmovdqu	%ymm0, -32(%rdx)
 1365      E0
 174:RGB2YCbCr.c   ****         {
 1366              		.loc 1 174 43 is_stmt 1 discriminator 3
 174:RGB2YCbCr.c   ****         {
 1367              		.loc 1 174 25 discriminator 3
 1368 0eff 4C39E0   		cmpq	%r12, %rax
 1369 0f02 0F85B0F5 		jne	.L26
 1369      FFFF
 1370 0f08 8B8558FE 		movl	-424(%rbp), %eax
 1370      FFFF
 1371 0f0e 4139C5   		cmpl	%eax, %r13d
 1372 0f11 0F84AD01 		je	.L35
 1372      0000
 174:RGB2YCbCr.c   ****         {
 1373              		.loc 1 174 18 is_stmt 0
 1374 0f17 89C6     		movl	%eax, %esi
 1375 0f19 C5F877   		vzeroupper
 1376              	.L25:
 1377 0f1c 488B8568 		movq	-408(%rbp), %rax
 1377      FEFFFF
 1378 0f23 8D1476   		leal	(%rsi,%rsi,2), %edx
 1379 0f26 C57A1015 		vmovss	.LC1(%rip), %xmm10
 1379      00000000 
 1380 0f2e 4863D2   		movslq	%edx, %rdx
 1381 0f31 C57B100D 		vmovsd	.LC61(%rip), %xmm9
 1381      00000000 
 1382 0f39 C57A1005 		vmovss	.LC3(%rip), %xmm8
 1382      00000000 
 1383 0f41 C5FA103D 		vmovss	.LC4(%rip), %xmm7
 1383      00000000 
 1384 0f49 C5FA1035 		vmovss	.LC5(%rip), %xmm6
 1384      00000000 
 1385 0f51 4801D0   		addq	%rdx, %rax
 1386 0f54 C5FB1015 		vmovsd	.LC62(%rip), %xmm2
 1386      00000000 
 1387 0f5c C5FA102D 		vmovss	.LC7(%rip), %xmm5
 1387      00000000 
 1388 0f64 C5FA100D 		vmovss	.LC8(%rip), %xmm1
 1388      00000000 
 1389 0f6c C5FA1025 		vmovss	.LC9(%rip), %xmm4
 1389      00000000 
 1390 0f74 C5FA101D 		vmovss	.LC10(%rip), %xmm3
 1390      00000000 
 1391 0f7c 48039560 		addq	-416(%rbp), %rdx
 1391      FEFFFF
 1392              		.p2align 4,,10
 1393 0f83 0F1F4400 		.p2align 3
 1393      00
 1394              	.L28:
 1395              	.LVL57:
 177:RGB2YCbCr.c   ****                 RGB2YCbCr_offset[0] +
 1396              		.loc 1 177 13 is_stmt 1
 179:RGB2YCbCr.c   ****                 RGB2YCbCr[0][1]*pixels_in[3*i + 1] + 
 1397              		.loc 1 179 42 is_stmt 0
 1398 0f88 0FB608   		movzbl	(%rax), %ecx
 179:RGB2YCbCr.c   ****                 RGB2YCbCr[0][1]*pixels_in[3*i + 1] + 
 1399              		.loc 1 179 32
 1400 0f8b C4410057 		vxorps	%xmm15, %xmm15, %xmm15
 1400      FF
 174:RGB2YCbCr.c   ****         {
 1401              		.loc 1 174 44
 1402 0f90 FFC6     		incl	%esi
 1403              	.LVL58:
 1404 0f92 4883C003 		addq	$3, %rax
 1405 0f96 4883C203 		addq	$3, %rdx
 179:RGB2YCbCr.c   ****                 RGB2YCbCr[0][1]*pixels_in[3*i + 1] + 
 1406              		.loc 1 179 32
 1407 0f9a C5822AC1 		vcvtsi2ssl	%ecx, %xmm15, %xmm0
 180:RGB2YCbCr.c   ****                 RGB2YCbCr[0][2]*pixels_in[3*i + 2]);
 1408              		.loc 1 180 42
 1409 0f9e 0FB648FE 		movzbl	-2(%rax), %ecx
 180:RGB2YCbCr.c   ****                 RGB2YCbCr[0][2]*pixels_in[3*i + 2]);
 1410              		.loc 1 180 32
 1411 0fa2 C5022AD9 		vcvtsi2ssl	%ecx, %xmm15, %xmm11
 181:RGB2YCbCr.c   ****             /* G */
 1412              		.loc 1 181 42
 1413 0fa6 0FB648FF 		movzbl	-1(%rax), %ecx
 179:RGB2YCbCr.c   ****                 RGB2YCbCr[0][1]*pixels_in[3*i + 1] + 
 1414              		.loc 1 179 32
 1415 0faa C4C17A59 		vmulss	%xmm10, %xmm0, %xmm0
 1415      C2
 180:RGB2YCbCr.c   ****                 RGB2YCbCr[0][2]*pixels_in[3*i + 2]);
 1416              		.loc 1 180 32
 1417 0faf C4412259 		vmulss	%xmm8, %xmm11, %xmm11
 1417      D8
 179:RGB2YCbCr.c   ****                 RGB2YCbCr[0][1]*pixels_in[3*i + 1] + 
 1418              		.loc 1 179 32
 1419 0fb4 C5FA5AC0 		vcvtss2sd	%xmm0, %xmm0, %xmm0
 178:RGB2YCbCr.c   ****                 RGB2YCbCr[0][0]*pixels_in[3*i + 0] + 
 1420              		.loc 1 178 37
 1421 0fb8 C4C17B58 		vaddsd	%xmm9, %xmm0, %xmm0
 1421      C1
 180:RGB2YCbCr.c   ****                 RGB2YCbCr[0][2]*pixels_in[3*i + 2]);
 1422              		.loc 1 180 32
 1423 0fbd C441225A 		vcvtss2sd	%xmm11, %xmm11, %xmm11
 1423      DB
 179:RGB2YCbCr.c   ****                 RGB2YCbCr[0][1]*pixels_in[3*i + 1] + 
 1424              		.loc 1 179 52
 1425 0fc2 C4C17B58 		vaddsd	%xmm11, %xmm0, %xmm0
 1425      C3
 181:RGB2YCbCr.c   ****             /* G */
 1426              		.loc 1 181 32
 1427 0fc7 C5022AD9 		vcvtsi2ssl	%ecx, %xmm15, %xmm11
 1428 0fcb C52259DF 		vmulss	%xmm7, %xmm11, %xmm11
 1429 0fcf C441225A 		vcvtss2sd	%xmm11, %xmm11, %xmm11
 1429      DB
 180:RGB2YCbCr.c   ****                 RGB2YCbCr[0][2]*pixels_in[3*i + 2]);
 1430              		.loc 1 180 52
 1431 0fd4 C4C17B58 		vaddsd	%xmm11, %xmm0, %xmm0
 1431      C3
 177:RGB2YCbCr.c   ****                 RGB2YCbCr_offset[0] +
 1432              		.loc 1 177 35
 1433 0fd9 C5FB2CC8 		vcvttsd2sil	%xmm0, %ecx
 1434 0fdd 884AFD   		movb	%cl, -3(%rdx)
 183:RGB2YCbCr.c   ****                 RGB2YCbCr_offset[1] +
 1435              		.loc 1 183 13 is_stmt 1
 185:RGB2YCbCr.c   ****                 RGB2YCbCr[1][1]*pixels_in[3*i + 1] + 
 1436              		.loc 1 185 42 is_stmt 0
 1437 0fe0 0FB648FD 		movzbl	-3(%rax), %ecx
 185:RGB2YCbCr.c   ****                 RGB2YCbCr[1][1]*pixels_in[3*i + 1] + 
 1438              		.loc 1 185 32
 1439 0fe4 C5822AC1 		vcvtsi2ssl	%ecx, %xmm15, %xmm0
 186:RGB2YCbCr.c   ****                 RGB2YCbCr[1][2]*pixels_in[3*i + 2]);
 1440              		.loc 1 186 42
 1441 0fe8 0FB648FE 		movzbl	-2(%rax), %ecx
 186:RGB2YCbCr.c   ****                 RGB2YCbCr[1][2]*pixels_in[3*i + 2]);
 1442              		.loc 1 186 32
 1443 0fec C5022AD9 		vcvtsi2ssl	%ecx, %xmm15, %xmm11
 187:RGB2YCbCr.c   ****             /* B */
 1444              		.loc 1 187 42
 1445 0ff0 0FB648FF 		movzbl	-1(%rax), %ecx
 185:RGB2YCbCr.c   ****                 RGB2YCbCr[1][1]*pixels_in[3*i + 1] + 
 1446              		.loc 1 185 32
 1447 0ff4 C5FA59C6 		vmulss	%xmm6, %xmm0, %xmm0
 186:RGB2YCbCr.c   ****                 RGB2YCbCr[1][2]*pixels_in[3*i + 2]);
 1448              		.loc 1 186 32
 1449 0ff8 C52259DD 		vmulss	%xmm5, %xmm11, %xmm11
 185:RGB2YCbCr.c   ****                 RGB2YCbCr[1][1]*pixels_in[3*i + 1] + 
 1450              		.loc 1 185 32
 1451 0ffc C5FA5AC0 		vcvtss2sd	%xmm0, %xmm0, %xmm0
 184:RGB2YCbCr.c   ****                 RGB2YCbCr[1][0]*pixels_in[3*i + 0] + 
 1452              		.loc 1 184 37
 1453 1000 C5FB58C2 		vaddsd	%xmm2, %xmm0, %xmm0
 186:RGB2YCbCr.c   ****                 RGB2YCbCr[1][2]*pixels_in[3*i + 2]);
 1454              		.loc 1 186 32
 1455 1004 C441225A 		vcvtss2sd	%xmm11, %xmm11, %xmm11
 1455      DB
 185:RGB2YCbCr.c   ****                 RGB2YCbCr[1][1]*pixels_in[3*i + 1] + 
 1456              		.loc 1 185 52
 1457 1009 C4C17B58 		vaddsd	%xmm11, %xmm0, %xmm0
 1457      C3
 187:RGB2YCbCr.c   ****             /* B */
 1458              		.loc 1 187 32
 1459 100e C5022AD9 		vcvtsi2ssl	%ecx, %xmm15, %xmm11
 1460 1012 C52259D9 		vmulss	%xmm1, %xmm11, %xmm11
 1461 1016 C441225A 		vcvtss2sd	%xmm11, %xmm11, %xmm11
 1461      DB
 186:RGB2YCbCr.c   ****                 RGB2YCbCr[1][2]*pixels_in[3*i + 2]);
 1462              		.loc 1 186 52
 1463 101b C4C17B58 		vaddsd	%xmm11, %xmm0, %xmm0
 1463      C3
 183:RGB2YCbCr.c   ****                 RGB2YCbCr_offset[1] +
 1464              		.loc 1 183 35
 1465 1020 C5FB2CC8 		vcvttsd2sil	%xmm0, %ecx
 1466 1024 884AFE   		movb	%cl, -2(%rdx)
 189:RGB2YCbCr.c   ****                 RGB2YCbCr_offset[2] +
 1467              		.loc 1 189 13 is_stmt 1
 191:RGB2YCbCr.c   ****                 RGB2YCbCr[2][1]*pixels_in[3*i + 1] + 
 1468              		.loc 1 191 42 is_stmt 0
 1469 1027 0FB648FD 		movzbl	-3(%rax), %ecx
 191:RGB2YCbCr.c   ****                 RGB2YCbCr[2][1]*pixels_in[3*i + 1] + 
 1470              		.loc 1 191 32
 1471 102b C5822AC1 		vcvtsi2ssl	%ecx, %xmm15, %xmm0
 192:RGB2YCbCr.c   ****                 RGB2YCbCr[2][2]*pixels_in[3*i + 2]);
 1472              		.loc 1 192 42
 1473 102f 0FB648FE 		movzbl	-2(%rax), %ecx
 192:RGB2YCbCr.c   ****                 RGB2YCbCr[2][2]*pixels_in[3*i + 2]);
 1474              		.loc 1 192 32
 1475 1033 C5022AD9 		vcvtsi2ssl	%ecx, %xmm15, %xmm11
 1476              		.loc 1 193 42
 1477 1037 0FB648FF 		movzbl	-1(%rax), %ecx
 191:RGB2YCbCr.c   ****                 RGB2YCbCr[2][1]*pixels_in[3*i + 1] + 
 1478              		.loc 1 191 32
 1479 103b C5FA59C1 		vmulss	%xmm1, %xmm0, %xmm0
 192:RGB2YCbCr.c   ****                 RGB2YCbCr[2][2]*pixels_in[3*i + 2]);
 1480              		.loc 1 192 32
 1481 103f C52259DC 		vmulss	%xmm4, %xmm11, %xmm11
 191:RGB2YCbCr.c   ****                 RGB2YCbCr[2][1]*pixels_in[3*i + 1] + 
 1482              		.loc 1 191 32
 1483 1043 C5FA5AC0 		vcvtss2sd	%xmm0, %xmm0, %xmm0
 190:RGB2YCbCr.c   ****                 RGB2YCbCr[2][0]*pixels_in[3*i + 0] + 
 1484              		.loc 1 190 37
 1485 1047 C5FB58C2 		vaddsd	%xmm2, %xmm0, %xmm0
 192:RGB2YCbCr.c   ****                 RGB2YCbCr[2][2]*pixels_in[3*i + 2]);
 1486              		.loc 1 192 32
 1487 104b C441225A 		vcvtss2sd	%xmm11, %xmm11, %xmm11
 1487      DB
 191:RGB2YCbCr.c   ****                 RGB2YCbCr[2][1]*pixels_in[3*i + 1] + 
 1488              		.loc 1 191 52
 1489 1050 C4C17B58 		vaddsd	%xmm11, %xmm0, %xmm0
 1489      C3
 1490              		.loc 1 193 32
 1491 1055 C5022AD9 		vcvtsi2ssl	%ecx, %xmm15, %xmm11
 1492 1059 C52259DB 		vmulss	%xmm3, %xmm11, %xmm11
 1493 105d C441225A 		vcvtss2sd	%xmm11, %xmm11, %xmm11
 1493      DB
 192:RGB2YCbCr.c   ****                 RGB2YCbCr[2][2]*pixels_in[3*i + 2]);
 1494              		.loc 1 192 52
 1495 1062 C4C17B58 		vaddsd	%xmm11, %xmm0, %xmm0
 1495      C3
 189:RGB2YCbCr.c   ****                 RGB2YCbCr_offset[2] +
 1496              		.loc 1 189 36
 1497 1067 C5FB2CC8 		vcvttsd2sil	%xmm0, %ecx
 1498 106b 884AFF   		movb	%cl, -1(%rdx)
 174:RGB2YCbCr.c   ****         {
 1499              		.loc 1 174 43 is_stmt 1
 1500              	.LVL59:
 174:RGB2YCbCr.c   ****         {
 1501              		.loc 1 174 25
 174:RGB2YCbCr.c   ****         {
 1502              		.loc 1 174 9 is_stmt 0
 1503 106e 4139F5   		cmpl	%esi, %r13d
 1504 1071 0F8F11FF 		jg	.L28
 1504      FFFF
 1505              	.LVL60:
 1506              	.L31:
 1507              	.LBE19:
 194:RGB2YCbCr.c   ****         }
 195:RGB2YCbCr.c   ****         dummy(image_in, image_out);
 1508              		.loc 1 195 9 is_stmt 1
 1509 1077 4C89F6   		movq	%r14, %rsi
 1510 107a 4C89FF   		movq	%r15, %rdi
 1511 107d E8000000 		call	dummy
 1511      00
 1512              	.LVL61:
 171:RGB2YCbCr.c   ****     {
 1513              		.loc 1 171 34
 171:RGB2YCbCr.c   ****     {
 1514              		.loc 1 171 22
 171:RGB2YCbCr.c   ****     {
 1515              		.loc 1 171 5 is_stmt 0
 1516 1082 FFCB     		decl	%ebx
 1517 1084 0F8506F4 		jne	.L24
 1517      FFFF
 1518              	.L29:
 1519              	.LBE22:
 196:RGB2YCbCr.c   ****     }
 197:RGB2YCbCr.c   ****     end_t = get_wall_time();
 1520              		.loc 1 197 5 is_stmt 1
 1521              		.loc 1 197 13 is_stmt 0
 1522 108a 31C0     		xorl	%eax, %eax
 1523 108c E8000000 		call	get_wall_time
 1523      00
 1524              	.LVL62:
 198:RGB2YCbCr.c   ****     results(end_t - start_t, height*width, "RGB2Gray_cast0");
 1525              		.loc 1 198 5 is_stmt 1
 1526 1091 C5FB5C85 		vsubsd	-432(%rbp), %xmm0, %xmm0
 1526      50FEFFFF 
 1527              	.LVL63:
 1528 1099 4489EF   		movl	%r13d, %edi
 199:RGB2YCbCr.c   **** }
 1529              		.loc 1 199 1 is_stmt 0
 1530 109c 4881C488 		addq	$392, %rsp
 1530      010000
 1531 10a3 5B       		popq	%rbx
 1532 10a4 415C     		popq	%r12
 198:RGB2YCbCr.c   ****     results(end_t - start_t, height*width, "RGB2Gray_cast0");
 1533              		.loc 1 198 5
 1534 10a6 BE000000 		movl	$.LC63, %esi
 1534      00
 1535              		.loc 1 199 1
 1536 10ab 415D     		popq	%r13
 1537              		.cfi_remember_state
 1538              		.cfi_def_cfa 13, 0
 1539 10ad 415E     		popq	%r14
 1540              	.LVL64:
 1541 10af 415F     		popq	%r15
 1542              	.LVL65:
 1543 10b1 5D       		popq	%rbp
 1544              	.LVL66:
 1545 10b2 498D65F0 		leaq	-16(%r13), %rsp
 1546              		.cfi_def_cfa 7, 16
 1547              	.LVL67:
 1548 10b6 415D     		popq	%r13
 1549              		.cfi_def_cfa_offset 8
 198:RGB2YCbCr.c   ****     results(end_t - start_t, height*width, "RGB2Gray_cast0");
 1550              		.loc 1 198 5
 1551 10b8 E9000000 		jmp	results
 1551      00
 1552              	.LVL68:
 1553              	.L32:
 1554              		.cfi_restore_state
 1555              	.LBB23:
 1556              	.LBB20:
 174:RGB2YCbCr.c   ****         {
 1557              		.loc 1 174 18
 1558 10bd 31F6     		xorl	%esi, %esi
 1559 10bf E958FEFF 		jmp	.L25
 1559      FF
 1560              	.LVL69:
 1561              	.L35:
 1562 10c4 C5F877   		vzeroupper
 1563              	.LBE20:
 195:RGB2YCbCr.c   ****     }
 1564              		.loc 1 195 9 is_stmt 1
 1565 10c7 4C89F6   		movq	%r14, %rsi
 1566 10ca 4C89FF   		movq	%r15, %rdi
 1567 10cd E8000000 		call	dummy
 1567      00
 1568              	.LVL70:
 171:RGB2YCbCr.c   ****     {
 1569              		.loc 1 171 34
 171:RGB2YCbCr.c   ****     {
 1570              		.loc 1 171 22
 171:RGB2YCbCr.c   ****     {
 1571              		.loc 1 171 5 is_stmt 0
 1572 10d2 FFCB     		decl	%ebx
 1573 10d4 0F85B6F3 		jne	.L24
 1573      FFFF
 1574 10da EBAE     		jmp	.L29
 1575              	.LVL71:
 1576              	.L37:
 1577              	.LBE23:
 159:RGB2YCbCr.c   ****         exit(-1);
 1578              		.loc 1 159 9 is_stmt 1
 1579 10dc BF000000 		movl	$.LC0, %edi
 1579      00
 1580              	.LVL72:
 1581 10e1 E8000000 		call	puts
 1581      00
 1582              	.LVL73:
 160:RGB2YCbCr.c   ****     }
 1583              		.loc 1 160 9
 1584 10e6 83CFFF   		orl	$-1, %edi
 1585 10e9 E8000000 		call	exit
 1585      00
 1586              	.LVL74:
 1587              		.cfi_endproc
 1588              	.LFE16:
 1590              		.section	.rodata.str1.1
 1591              	.LC66:
 1592 0033 52474232 		.string	"RGB2Gray_cast1"
 1592      47726179 
 1592      5F636173 
 1592      743100
 1593              		.text
 1594 10ee 6690     		.p2align 4
 1595              		.globl	RGB2YCbCr_cast1
 1597              	RGB2YCbCr_cast1:
 1598              	.LFB17:
 200:RGB2YCbCr.c   **** //----------------------------------------------------------------------------
 201:RGB2YCbCr.c   **** 
 202:RGB2YCbCr.c   **** /* cambios respecto RGB2YCbCr_cast0(): cast de la constante 0.5 a float */
 203:RGB2YCbCr.c   **** void
 204:RGB2YCbCr.c   **** RGB2YCbCr_cast1(image_t * restrict image_in, image_t * restrict image_out)
 205:RGB2YCbCr.c   **** {
 1599              		.loc 1 205 1
 1600              		.cfi_startproc
 1601              	.LVL75:
 206:RGB2YCbCr.c   ****     double start_t, end_t;
 1602              		.loc 1 206 5
 207:RGB2YCbCr.c   ****     const int height = image_in->height;
 1603              		.loc 1 207 5
 205:RGB2YCbCr.c   ****     double start_t, end_t;
 1604              		.loc 1 205 1 is_stmt 0
 1605 10f0 4155     		pushq	%r13
 1606              		.cfi_def_cfa_offset 16
 1607              		.cfi_offset 13, -16
 1608 10f2 4C8D6C24 		leaq	16(%rsp), %r13
 1608      10
 1609              		.cfi_def_cfa 13, 0
 1610 10f7 4883E4E0 		andq	$-32, %rsp
 1611 10fb 41FF75F8 		pushq	-8(%r13)
 1612 10ff 55       		pushq	%rbp
 1613              		.cfi_escape 0x10,0x6,0x2,0x76,0
 1614 1100 4889E5   		movq	%rsp, %rbp
 1615 1103 4157     		pushq	%r15
 1616 1105 4156     		pushq	%r14
 1617 1107 4155     		pushq	%r13
 1618              		.cfi_escape 0xf,0x3,0x76,0x68,0x6
 1619              		.cfi_escape 0x10,0xf,0x2,0x76,0x78
 1620              		.cfi_escape 0x10,0xe,0x2,0x76,0x70
 1621 1109 4154     		pushq	%r12
 1622 110b 53       		pushq	%rbx
 1623 110c 4881EC88 		subq	$136, %rsp
 1623      000000
 1624              		.cfi_escape 0x10,0xc,0x2,0x76,0x60
 1625              		.cfi_escape 0x10,0x3,0x2,0x76,0x58
 208:RGB2YCbCr.c   ****     const int width =  image_in->width;
 209:RGB2YCbCr.c   ****     unsigned char * restrict pixels_in  = image_in->pixels;
 1626              		.loc 1 209 30
 1627 1113 488B07   		movq	(%rdi), %rax
 210:RGB2YCbCr.c   ****     unsigned char * restrict pixels_out = image_out->pixels;
 211:RGB2YCbCr.c   **** 
 212:RGB2YCbCr.c   ****     if (image_in->bytes_per_pixel != 3)
 1628              		.loc 1 212 8
 1629 1116 837F1003 		cmpl	$3, 16(%rdi)
 207:RGB2YCbCr.c   ****     const int width =  image_in->width;
 1630              		.loc 1 207 15
 1631 111a 8B5F0C   		movl	12(%rdi), %ebx
 1632              	.LVL76:
 208:RGB2YCbCr.c   ****     const int width =  image_in->width;
 1633              		.loc 1 208 5 is_stmt 1
 208:RGB2YCbCr.c   ****     const int width =  image_in->width;
 1634              		.loc 1 208 15 is_stmt 0
 1635 111d 448B6F08 		movl	8(%rdi), %r13d
 1636              	.LVL77:
 209:RGB2YCbCr.c   ****     unsigned char * restrict pixels_out = image_out->pixels;
 1637              		.loc 1 209 5 is_stmt 1
 209:RGB2YCbCr.c   ****     unsigned char * restrict pixels_out = image_out->pixels;
 1638              		.loc 1 209 30 is_stmt 0
 1639 1121 48898568 		movq	%rax, -152(%rbp)
 1639      FFFFFF
 1640              	.LVL78:
 210:RGB2YCbCr.c   ****     unsigned char * restrict pixels_out = image_out->pixels;
 1641              		.loc 1 210 5 is_stmt 1
 210:RGB2YCbCr.c   ****     unsigned char * restrict pixels_out = image_out->pixels;
 1642              		.loc 1 210 30 is_stmt 0
 1643 1128 488B06   		movq	(%rsi), %rax
 1644              	.LVL79:
 1645 112b 48898560 		movq	%rax, -160(%rbp)
 1645      FFFFFF
 1646              	.LVL80:
 1647              		.loc 1 212 5 is_stmt 1
 1648              		.loc 1 212 8 is_stmt 0
 1649 1132 0F853308 		jne	.L52
 1649      0000
 213:RGB2YCbCr.c   ****     {
 214:RGB2YCbCr.c   ****         printf("ERROR: input image has to be RGB\n");
 215:RGB2YCbCr.c   ****         exit(-1);
 216:RGB2YCbCr.c   ****     }
 217:RGB2YCbCr.c   ****     
 218:RGB2YCbCr.c   ****     /* fill struct fields */
 219:RGB2YCbCr.c   ****     image_out->width  = width;
 220:RGB2YCbCr.c   ****     image_out->height = height;
 221:RGB2YCbCr.c   ****     image_out->bytes_per_pixel = 3;
 1650              		.loc 1 221 32
 1651 1138 48B80300 		movabsq	$12884901891, %rax
 1651      00000300 
 1651      0000
 1652              	.LVL81:
 219:RGB2YCbCr.c   ****     image_out->height = height;
 1653              		.loc 1 219 23
 1654 1142 44896E08 		movl	%r13d, 8(%rsi)
 1655              	.LBB24:
 1656              	.LBB25:
 222:RGB2YCbCr.c   ****     image_out->color_space = JCS_YCbCr;
 223:RGB2YCbCr.c   **** 
 224:RGB2YCbCr.c   ****     start_t = get_wall_time();
 225:RGB2YCbCr.c   **** 
 226:RGB2YCbCr.c   ****     for (int it = 0; it < NITER; it++)
 227:RGB2YCbCr.c   ****     {
 228:RGB2YCbCr.c   ****         #pragma GCC ivdep
 229:RGB2YCbCr.c   ****         for (int i = 0; i < height*width; i++)
 1657              		.loc 1 229 35
 1658 1146 440FAFEB 		imull	%ebx, %r13d
 1659              	.LVL82:
 1660 114a 4989FF   		movq	%rdi, %r15
 1661              	.LBE25:
 1662              	.LBE24:
 220:RGB2YCbCr.c   ****     image_out->bytes_per_pixel = 3;
 1663              		.loc 1 220 23
 1664 114d 895E0C   		movl	%ebx, 12(%rsi)
 1665 1150 4989F6   		movq	%rsi, %r14
 219:RGB2YCbCr.c   ****     image_out->height = height;
 1666              		.loc 1 219 5 is_stmt 1
 220:RGB2YCbCr.c   ****     image_out->bytes_per_pixel = 3;
 1667              		.loc 1 220 5
 221:RGB2YCbCr.c   ****     image_out->color_space = JCS_YCbCr;
 1668              		.loc 1 221 5
 222:RGB2YCbCr.c   ****     image_out->color_space = JCS_YCbCr;
 1669              		.loc 1 222 5
 1670              	.LBB29:
 1671              	.LBB26:
 1672              		.loc 1 229 35 is_stmt 0
 1673 1153 BB0A0000 		movl	$10, %ebx
 1673      00
 1674              	.LVL83:
 1675              	.LBE26:
 1676              	.LBE29:
 221:RGB2YCbCr.c   ****     image_out->color_space = JCS_YCbCr;
 1677              		.loc 1 221 32
 1678 1158 48894610 		movq	%rax, 16(%rsi)
 224:RGB2YCbCr.c   **** 
 1679              		.loc 1 224 5 is_stmt 1
 224:RGB2YCbCr.c   **** 
 1680              		.loc 1 224 15 is_stmt 0
 1681 115c 31C0     		xorl	%eax, %eax
 1682 115e E8000000 		call	get_wall_time
 1682      00
 1683              	.LVL84:
 1684 1163 418D45FF 		leal	-1(%r13), %eax
 1685 1167 C4411857 		vxorps	%xmm12, %xmm12, %xmm12
 1685      E4
 1686 116c C57C282D 		vmovaps	.LC38(%rip), %ymm13
 1686      00000000 
 1687 1174 89855CFF 		movl	%eax, -164(%rbp)
 1687      FFFF
 1688 117a 4489E8   		movl	%r13d, %eax
 1689 117d C1E805   		shrl	$5, %eax
 1690 1180 C5FB1185 		vmovsd	%xmm0, -176(%rbp)
 1690      50FFFFFF 
 1691              	.LVL85:
 226:RGB2YCbCr.c   ****     {
 1692              		.loc 1 226 5 is_stmt 1
 1693              	.LBB30:
 226:RGB2YCbCr.c   ****     {
 1694              		.loc 1 226 10
 226:RGB2YCbCr.c   ****     {
 1695              		.loc 1 226 22
 1696 1188 4C8D0C40 		leaq	(%rax,%rax,2), %r9
 1697 118c 488B8568 		movq	-152(%rbp), %rax
 1697      FFFFFF
 1698 1193 49C1E105 		salq	$5, %r9
 1699 1197 4D8D2401 		leaq	(%r9,%rax), %r12
 1700 119b 4489E8   		movl	%r13d, %eax
 1701 119e 83E0E0   		andl	$-32, %eax
 1702 11a1 898558FF 		movl	%eax, -168(%rbp)
 1702      FFFF
 1703              	.LVL86:
 1704 11a7 660F1F84 		.p2align 4,,10
 1704      00000000 
 1704      00
 1705              		.p2align 3
 1706              	.L40:
 1707              	.LBB27:
 1708              		.loc 1 229 25
 1709              		.loc 1 229 9 is_stmt 0
 1710 11b0 4585ED   		testl	%r13d, %r13d
 1711 11b3 0F8E5207 		jle	.L47
 1711      0000
 1712 11b9 83BD5CFF 		cmpl	$30, -164(%rbp)
 1712      FFFF1E
 1713 11c0 0F869E07 		jbe	.L48
 1713      0000
 1714 11c6 488B9560 		movq	-160(%rbp), %rdx
 1714      FFFFFF
 1715 11cd 488B8568 		movq	-152(%rbp), %rax
 1715      FFFFFF
 1716              	.LVL87:
 1717              		.p2align 4,,10
 1718 11d4 0F1F4000 		.p2align 3
 1719              	.L42:
 230:RGB2YCbCr.c   ****         {
 231:RGB2YCbCr.c   ****             /* el cast float mejora las prestaciones!! */
 232:RGB2YCbCr.c   ****             /* R */
 233:RGB2YCbCr.c   ****             pixels_out[3*i + 0] = (unsigned char) (0.5f + 
 1720              		.loc 1 233 13 is_stmt 1 discriminator 3
 234:RGB2YCbCr.c   ****                 RGB2YCbCr_offset[0] +
 235:RGB2YCbCr.c   ****                 RGB2YCbCr[0][0]*pixels_in[3*i + 0] + 
 1721              		.loc 1 235 42 is_stmt 0 discriminator 3
 1722 11d8 C5FE6F00 		vmovdqu	(%rax), %ymm0
 1723 11dc C5FE6F58 		vmovdqu	64(%rax), %ymm3
 1723      40
 1724 11e1 4883C060 		addq	$96, %rax
 1725 11e5 4883C260 		addq	$96, %rdx
 1726 11e9 C5FE6F50 		vmovdqu	-64(%rax), %ymm2
 1726      C0
 1727 11ee C4E27D00 		vpshufb	.LC13(%rip), %ymm0, %ymm1
 1727      0D000000 
 1727      00
 1728 11f7 C4E26D00 		vpshufb	.LC15(%rip), %ymm2, %ymm5
 1728      2D000000 
 1728      00
 1729 1200 C4E3FD00 		vpermq	$78, %ymm1, %ymm4
 1729      E14E
 1730 1206 C4E27D00 		vpshufb	.LC14(%rip), %ymm0, %ymm1
 1730      0D000000 
 1730      00
 1731 120f C4E26D00 		vpshufb	.LC21(%rip), %ymm2, %ymm6
 1731      35000000 
 1731      00
 1732 1218 C5F5EBCC 		vpor	%ymm4, %ymm1, %ymm1
 1733 121c C4E26500 		vpshufb	.LC16(%rip), %ymm3, %ymm4
 1733      25000000 
 1733      00
 1734 1225 C4E26D00 		vpshufb	.LC27(%rip), %ymm2, %ymm2
 1734      15000000 
 1734      00
 1735 122e C5F5EBCD 		vpor	%ymm5, %ymm1, %ymm1
 1736 1232 C4E3FD00 		vpermq	$78, %ymm4, %ymm5
 1736      EC4E
 1737 1238 C4E26500 		vpshufb	.LC18(%rip), %ymm3, %ymm4
 1737      25000000 
 1737      00
 1738 1241 C4E27500 		vpshufb	.LC17(%rip), %ymm1, %ymm1
 1738      0D000000 
 1738      00
 1739 124a C5DDEBE5 		vpor	%ymm5, %ymm4, %ymm4
 1740 124e C5F5EBCC 		vpor	%ymm4, %ymm1, %ymm1
 1741 1252 C4E27D00 		vpshufb	.LC19(%rip), %ymm0, %ymm4
 1741      25000000 
 1741      00
 1742 125b C4E3FD00 		vpermq	$78, %ymm4, %ymm5
 1742      EC4E
 1743 1261 C4E27D00 		vpshufb	.LC20(%rip), %ymm0, %ymm4
 1743      25000000 
 1743      00
 1744 126a C5DDEBE5 		vpor	%ymm5, %ymm4, %ymm4
 1745 126e C4E26500 		vpshufb	.LC22(%rip), %ymm3, %ymm5
 1745      2D000000 
 1745      00
 1746 1277 C5DDEBE6 		vpor	%ymm6, %ymm4, %ymm4
 1747 127b C4E3FD00 		vpermq	$78, %ymm5, %ymm6
 1747      F54E
 1748 1281 C4E26500 		vpshufb	.LC24(%rip), %ymm3, %ymm5
 1748      2D000000 
 1748      00
 1749 128a C4E25D00 		vpshufb	.LC23(%rip), %ymm4, %ymm4
 1749      25000000 
 1749      00
 1750 1293 C5D5EBEE 		vpor	%ymm6, %ymm5, %ymm5
 1751 1297 C5DDEBE5 		vpor	%ymm5, %ymm4, %ymm4
 1752 129b C4E27D00 		vpshufb	.LC25(%rip), %ymm0, %ymm5
 1752      2D000000 
 1752      00
 1753 12a4 C4E27D00 		vpshufb	.LC26(%rip), %ymm0, %ymm0
 1753      05000000 
 1753      00
 1754 12ad C4E3FD00 		vpermq	$78, %ymm5, %ymm5
 1754      ED4E
 1755 12b3 C5FDEBC5 		vpor	%ymm5, %ymm0, %ymm0
 1756 12b7 C5FDEBC2 		vpor	%ymm2, %ymm0, %ymm0
 1757 12bb C4E26500 		vpshufb	.LC28(%rip), %ymm3, %ymm2
 1757      15000000 
 1757      00
 1758 12c4 C4E27D00 		vpshufb	.LC23(%rip), %ymm0, %ymm0
 1758      05000000 
 1758      00
 1759 12cd C4E3FD00 		vpermq	$78, %ymm2, %ymm5
 1759      EA4E
 1760 12d3 C4E26500 		vpshufb	.LC29(%rip), %ymm3, %ymm2
 1760      15000000 
 1760      00
 1761 12dc C5EDEBD5 		vpor	%ymm5, %ymm2, %ymm2
 1762 12e0 C4E27D30 		vpmovzxbw	%xmm1, %ymm3
 1762      D9
 1763 12e5 C4E37D39 		vextracti128	$0x1, %ymm1, %xmm1
 1763      C901
 1764 12eb C5FDEBD2 		vpor	%ymm2, %ymm0, %ymm2
 1765 12ef C4E27D33 		vpmovzxwd	%xmm3, %ymm0
 1765      C3
 1766 12f4 C4E37D39 		vextracti128	$0x1, %ymm3, %xmm3
 1766      DB01
 1767 12fa C4E27D30 		vpmovzxbw	%xmm1, %ymm1
 1767      C9
 1768 12ff C4E27D33 		vpmovzxwd	%xmm3, %ymm3
 1768      DB
 1769              		.loc 1 235 32 discriminator 3
 1770 1304 C5FC5BC0 		vcvtdq2ps	%ymm0, %ymm0
 236:RGB2YCbCr.c   ****                 RGB2YCbCr[0][1]*pixels_in[3*i + 1] + 
 237:RGB2YCbCr.c   ****                 RGB2YCbCr[0][2]*pixels_in[3*i + 2]);
 1771              		.loc 1 237 42 discriminator 3
 1772 1308 C4E27D30 		vpmovzxbw	%xmm2, %ymm6
 1772      F2
 235:RGB2YCbCr.c   ****                 RGB2YCbCr[0][1]*pixels_in[3*i + 1] + 
 1773              		.loc 1 235 32 discriminator 3
 1774 130d C5FC5BEB 		vcvtdq2ps	%ymm3, %ymm5
 235:RGB2YCbCr.c   ****                 RGB2YCbCr[0][1]*pixels_in[3*i + 1] + 
 1775              		.loc 1 235 42 discriminator 3
 1776 1311 C4E27D33 		vpmovzxwd	%xmm1, %ymm3
 1776      D9
 1777 1316 C4E37D39 		vextracti128	$0x1, %ymm1, %xmm1
 1777      C901
 1778              		.loc 1 237 42 discriminator 3
 1779 131c C4627D33 		vpmovzxwd	%xmm6, %ymm10
 1779      D6
 235:RGB2YCbCr.c   ****                 RGB2YCbCr[0][1]*pixels_in[3*i + 1] + 
 1780              		.loc 1 235 42 discriminator 3
 1781 1321 C4E27D33 		vpmovzxwd	%xmm1, %ymm1
 1781      C9
 235:RGB2YCbCr.c   ****                 RGB2YCbCr[0][1]*pixels_in[3*i + 1] + 
 1782              		.loc 1 235 32 discriminator 3
 1783 1326 C57C5BF3 		vcvtdq2ps	%ymm3, %ymm14
 1784              		.loc 1 237 32 discriminator 3
 1785 132a C4417C5B 		vcvtdq2ps	%ymm10, %ymm10
 1785      D2
 235:RGB2YCbCr.c   ****                 RGB2YCbCr[0][1]*pixels_in[3*i + 1] + 
 1786              		.loc 1 235 32 discriminator 3
 1787 132f C57C28FD 		vmovaps	%ymm5, %ymm15
 1788 1333 C5FC5BF9 		vcvtdq2ps	%ymm1, %ymm7
 1789 1337 C5FC590D 		vmulps	.LC30(%rip), %ymm0, %ymm1
 1789      00000000 
 1790 133f C5FC297D 		vmovaps	%ymm7, -80(%rbp)
 1790      B0
 236:RGB2YCbCr.c   ****                 RGB2YCbCr[0][1]*pixels_in[3*i + 1] + 
 1791              		.loc 1 236 42 discriminator 3
 1792 1344 C4E27D30 		vpmovzxbw	%xmm4, %ymm7
 1792      FC
 1793 1349 C4627D33 		vpmovzxwd	%xmm7, %ymm11
 1793      DF
 1794 134e C4E37D39 		vextracti128	$0x1, %ymm7, %xmm7
 1794      FF01
 1795              		.loc 1 237 42 discriminator 3
 1796 1354 C4E37D39 		vextracti128	$0x1, %ymm6, %xmm6
 1796      F601
 235:RGB2YCbCr.c   ****                 RGB2YCbCr[0][1]*pixels_in[3*i + 1] + 
 1797              		.loc 1 235 32 discriminator 3
 1798 135a C57C2975 		vmovaps	%ymm14, -112(%rbp)
 1798      90
 236:RGB2YCbCr.c   ****                 RGB2YCbCr[0][1]*pixels_in[3*i + 1] + 
 1799              		.loc 1 236 32 discriminator 3
 1800 135f C4417C5B 		vcvtdq2ps	%ymm11, %ymm11
 1800      DB
 236:RGB2YCbCr.c   ****                 RGB2YCbCr[0][1]*pixels_in[3*i + 1] + 
 1801              		.loc 1 236 42 discriminator 3
 1802 1364 C4E27D33 		vpmovzxwd	%xmm7, %ymm7
 1802      FF
 1803              		.loc 1 237 42 discriminator 3
 1804 1369 C4E27D33 		vpmovzxwd	%xmm6, %ymm6
 1804      F6
 236:RGB2YCbCr.c   ****                 RGB2YCbCr[0][1]*pixels_in[3*i + 1] + 
 1805              		.loc 1 236 42 discriminator 3
 1806 136e C4E37D39 		vextracti128	$0x1, %ymm4, %xmm4
 1806      E401
 236:RGB2YCbCr.c   ****                 RGB2YCbCr[0][1]*pixels_in[3*i + 1] + 
 1807              		.loc 1 236 32 discriminator 3
 1808 1374 C5A4591D 		vmulps	.LC31(%rip), %ymm11, %ymm3
 1808      00000000 
 1809 137c C5FC5BFF 		vcvtdq2ps	%ymm7, %ymm7
 1810              		.loc 1 237 32 discriminator 3
 1811 1380 C5FC5BF6 		vcvtdq2ps	%ymm6, %ymm6
 236:RGB2YCbCr.c   ****                 RGB2YCbCr[0][1]*pixels_in[3*i + 1] + 
 1812              		.loc 1 236 42 discriminator 3
 1813 1384 C4E27D30 		vpmovzxbw	%xmm4, %ymm4
 1813      E4
 1814 1389 C4627D33 		vpmovzxwd	%xmm4, %ymm9
 1814      CC
 1815              		.loc 1 237 42 discriminator 3
 1816 138e C4E37D39 		vextracti128	$0x1, %ymm2, %xmm2
 1816      D201
 236:RGB2YCbCr.c   ****                 RGB2YCbCr[0][1]*pixels_in[3*i + 1] + 
 1817              		.loc 1 236 42 discriminator 3
 1818 1394 C4E37D39 		vextracti128	$0x1, %ymm4, %xmm4
 1818      E401
 234:RGB2YCbCr.c   ****                 RGB2YCbCr_offset[0] +
 1819              		.loc 1 234 37 discriminator 3
 1820 139a C4C17458 		vaddps	%ymm13, %ymm1, %ymm1
 1820      CD
 236:RGB2YCbCr.c   ****                 RGB2YCbCr[0][1]*pixels_in[3*i + 1] + 
 1821              		.loc 1 236 32 discriminator 3
 1822 139f C4417C5B 		vcvtdq2ps	%ymm9, %ymm9
 1822      C9
 1823              		.loc 1 237 42 discriminator 3
 1824 13a4 C4E27D30 		vpmovzxbw	%xmm2, %ymm2
 1824      D2
 236:RGB2YCbCr.c   ****                 RGB2YCbCr[0][1]*pixels_in[3*i + 1] + 
 1825              		.loc 1 236 42 discriminator 3
 1826 13a9 C4E27D33 		vpmovzxwd	%xmm4, %ymm4
 1826      E4
 1827              		.loc 1 237 42 discriminator 3
 1828 13ae C4627D33 		vpmovzxwd	%xmm2, %ymm8
 1828      C2
 236:RGB2YCbCr.c   ****                 RGB2YCbCr[0][1]*pixels_in[3*i + 1] + 
 1829              		.loc 1 236 32 discriminator 3
 1830 13b3 C5FC5BE4 		vcvtdq2ps	%ymm4, %ymm4
 1831              		.loc 1 237 42 discriminator 3
 1832 13b7 C4E37D39 		vextracti128	$0x1, %ymm2, %xmm2
 1832      D201
 1833              		.loc 1 237 32 discriminator 3
 1834 13bd C4417C5B 		vcvtdq2ps	%ymm8, %ymm8
 1834      C0
 1835              		.loc 1 237 42 discriminator 3
 1836 13c2 C4E27D33 		vpmovzxwd	%xmm2, %ymm2
 1836      D2
 235:RGB2YCbCr.c   ****                 RGB2YCbCr[0][1]*pixels_in[3*i + 1] + 
 1837              		.loc 1 235 52 discriminator 3
 1838 13c7 C5F458CB 		vaddps	%ymm3, %ymm1, %ymm1
 1839              		.loc 1 237 32 discriminator 3
 1840 13cb C5AC591D 		vmulps	.LC32(%rip), %ymm10, %ymm3
 1840      00000000 
 1841 13d3 C5FC5BD2 		vcvtdq2ps	%ymm2, %ymm2
 236:RGB2YCbCr.c   ****                 RGB2YCbCr[0][1]*pixels_in[3*i + 1] + 
 1842              		.loc 1 236 52 discriminator 3
 1843 13d7 C5F458CB 		vaddps	%ymm3, %ymm1, %ymm1
 235:RGB2YCbCr.c   ****                 RGB2YCbCr[0][1]*pixels_in[3*i + 1] + 
 1844              		.loc 1 235 32 discriminator 3
 1845 13db C5D4591D 		vmulps	.LC30(%rip), %ymm5, %ymm3
 1845      00000000 
 233:RGB2YCbCr.c   ****                 RGB2YCbCr_offset[0] +
 1846              		.loc 1 233 35 discriminator 3
 1847 13e3 C5FE5BC9 		vcvttps2dq	%ymm1, %ymm1
 234:RGB2YCbCr.c   ****                 RGB2YCbCr[0][0]*pixels_in[3*i + 0] + 
 1848              		.loc 1 234 37 discriminator 3
 1849 13e7 C4C16458 		vaddps	%ymm13, %ymm3, %ymm5
 1849      ED
 236:RGB2YCbCr.c   ****                 RGB2YCbCr[0][2]*pixels_in[3*i + 2]);
 1850              		.loc 1 236 32 discriminator 3
 1851 13ec C5C4591D 		vmulps	.LC31(%rip), %ymm7, %ymm3
 1851      00000000 
 235:RGB2YCbCr.c   ****                 RGB2YCbCr[0][1]*pixels_in[3*i + 1] + 
 1852              		.loc 1 235 52 discriminator 3
 1853 13f4 C5D458DB 		vaddps	%ymm3, %ymm5, %ymm3
 1854              		.loc 1 237 32 discriminator 3
 1855 13f8 C5CC592D 		vmulps	.LC32(%rip), %ymm6, %ymm5
 1855      00000000 
 236:RGB2YCbCr.c   ****                 RGB2YCbCr[0][2]*pixels_in[3*i + 2]);
 1856              		.loc 1 236 52 discriminator 3
 1857 1400 C5E458ED 		vaddps	%ymm5, %ymm3, %ymm5
 233:RGB2YCbCr.c   ****                 RGB2YCbCr_offset[0] +
 1858              		.loc 1 233 35 discriminator 3
 1859 1404 C5F5DB1D 		vpand	.LC34(%rip), %ymm1, %ymm3
 1859      00000000 
 235:RGB2YCbCr.c   ****                 RGB2YCbCr[0][1]*pixels_in[3*i + 1] + 
 1860              		.loc 1 235 32 discriminator 3
 1861 140c C58C590D 		vmulps	.LC30(%rip), %ymm14, %ymm1
 1861      00000000 
 233:RGB2YCbCr.c   ****                 RGB2YCbCr_offset[0] +
 1862              		.loc 1 233 35 discriminator 3
 1863 1414 C5FE5BED 		vcvttps2dq	%ymm5, %ymm5
 1864 1418 C5D5DB2D 		vpand	.LC34(%rip), %ymm5, %ymm5
 1864      00000000 
 1865 1420 C4E2652B 		vpackusdw	%ymm5, %ymm3, %ymm3
 1865      DD
 234:RGB2YCbCr.c   ****                 RGB2YCbCr[0][0]*pixels_in[3*i + 0] + 
 1866              		.loc 1 234 37 discriminator 3
 1867 1425 C4C17458 		vaddps	%ymm13, %ymm1, %ymm5
 1867      ED
 236:RGB2YCbCr.c   ****                 RGB2YCbCr[0][2]*pixels_in[3*i + 2]);
 1868              		.loc 1 236 32 discriminator 3
 1869 142a C5B4590D 		vmulps	.LC31(%rip), %ymm9, %ymm1
 1869      00000000 
 233:RGB2YCbCr.c   ****                 RGB2YCbCr_offset[0] +
 1870              		.loc 1 233 35 discriminator 3
 1871 1432 C4E3FD00 		vpermq	$216, %ymm3, %ymm3
 1871      DBD8
 238:RGB2YCbCr.c   ****             /* G */
 239:RGB2YCbCr.c   ****             pixels_out[3*i + 1] = (unsigned char) (0.5f + 
 240:RGB2YCbCr.c   ****                 RGB2YCbCr_offset[1] +
 241:RGB2YCbCr.c   ****                 RGB2YCbCr[1][0]*pixels_in[3*i + 0] + 
 1872              		.loc 1 241 32 discriminator 3
 1873 1438 C57C29BD 		vmovaps	%ymm15, -144(%rbp)
 1873      70FFFFFF 
 235:RGB2YCbCr.c   ****                 RGB2YCbCr[0][1]*pixels_in[3*i + 1] + 
 1874              		.loc 1 235 52 discriminator 3
 1875 1440 C5D458C9 		vaddps	%ymm1, %ymm5, %ymm1
 237:RGB2YCbCr.c   ****             /* G */
 1876              		.loc 1 237 32 discriminator 3
 1877 1444 C5BC592D 		vmulps	.LC32(%rip), %ymm8, %ymm5
 1877      00000000 
 236:RGB2YCbCr.c   ****                 RGB2YCbCr[0][2]*pixels_in[3*i + 2]);
 1878              		.loc 1 236 52 discriminator 3
 1879 144c C5F458CD 		vaddps	%ymm5, %ymm1, %ymm1
 235:RGB2YCbCr.c   ****                 RGB2YCbCr[0][1]*pixels_in[3*i + 1] + 
 1880              		.loc 1 235 32 discriminator 3
 1881 1450 C5FC286D 		vmovaps	-80(%rbp), %ymm5
 1881      B0
 1882 1455 C5D4592D 		vmulps	.LC30(%rip), %ymm5, %ymm5
 1882      00000000 
 233:RGB2YCbCr.c   ****                 RGB2YCbCr_offset[0] +
 1883              		.loc 1 233 35 discriminator 3
 1884 145d C5FE5BC9 		vcvttps2dq	%ymm1, %ymm1
 1885 1461 C5F5DB0D 		vpand	.LC34(%rip), %ymm1, %ymm1
 1885      00000000 
 234:RGB2YCbCr.c   ****                 RGB2YCbCr[0][0]*pixels_in[3*i + 0] + 
 1886              		.loc 1 234 37 discriminator 3
 1887 1469 C4415458 		vaddps	%ymm13, %ymm5, %ymm14
 1887      F5
 236:RGB2YCbCr.c   ****                 RGB2YCbCr[0][2]*pixels_in[3*i + 2]);
 1888              		.loc 1 236 32 discriminator 3
 1889 146e C5DC592D 		vmulps	.LC31(%rip), %ymm4, %ymm5
 1889      00000000 
 235:RGB2YCbCr.c   ****                 RGB2YCbCr[0][1]*pixels_in[3*i + 1] + 
 1890              		.loc 1 235 52 discriminator 3
 1891 1476 C58C58ED 		vaddps	%ymm5, %ymm14, %ymm5
 237:RGB2YCbCr.c   ****             /* G */
 1892              		.loc 1 237 32 discriminator 3
 1893 147a C56C5935 		vmulps	.LC32(%rip), %ymm2, %ymm14
 1893      00000000 
 236:RGB2YCbCr.c   ****                 RGB2YCbCr[0][2]*pixels_in[3*i + 2]);
 1894              		.loc 1 236 52 discriminator 3
 1895 1482 C4C15458 		vaddps	%ymm14, %ymm5, %ymm5
 1895      EE
 233:RGB2YCbCr.c   ****                 RGB2YCbCr_offset[0] +
 1896              		.loc 1 233 35 discriminator 3
 1897 1487 C5FE5BED 		vcvttps2dq	%ymm5, %ymm5
 1898 148b C5D5DB2D 		vpand	.LC34(%rip), %ymm5, %ymm5
 1898      00000000 
 1899 1493 C4E2752B 		vpackusdw	%ymm5, %ymm1, %ymm5
 1899      ED
 1900 1498 C5E5DB0D 		vpand	.LC35(%rip), %ymm3, %ymm1
 1900      00000000 
 1901 14a0 C4E3FD00 		vpermq	$216, %ymm5, %ymm5
 1901      EDD8
 1902 14a6 C5D5DB2D 		vpand	.LC35(%rip), %ymm5, %ymm5
 1902      00000000 
 1903 14ae C5F567CD 		vpackuswb	%ymm5, %ymm1, %ymm1
 1904              		.loc 1 241 32 discriminator 3
 1905 14b2 C5FC592D 		vmulps	.LC36(%rip), %ymm0, %ymm5
 1905      00000000 
 233:RGB2YCbCr.c   ****                 RGB2YCbCr_offset[0] +
 1906              		.loc 1 233 35 discriminator 3
 1907 14ba C4E3FD00 		vpermq	$216, %ymm1, %ymm1
 1907      C9D8
 239:RGB2YCbCr.c   ****                 RGB2YCbCr_offset[1] +
 1908              		.loc 1 239 13 is_stmt 1 discriminator 3
 240:RGB2YCbCr.c   ****                 RGB2YCbCr[1][0]*pixels_in[3*i + 0] + 
 1909              		.loc 1 240 37 is_stmt 0 discriminator 3
 1910 14c0 C5D4581D 		vaddps	.LC64(%rip), %ymm5, %ymm3
 1910      00000000 
 242:RGB2YCbCr.c   ****                 RGB2YCbCr[1][1]*pixels_in[3*i + 1] + 
 1911              		.loc 1 242 32 discriminator 3
 1912 14c8 C5A4592D 		vmulps	.LC37(%rip), %ymm11, %ymm5
 1912      00000000 
 243:RGB2YCbCr.c   ****                 RGB2YCbCr[1][2]*pixels_in[3*i + 2]);
 244:RGB2YCbCr.c   ****             /* B */
 245:RGB2YCbCr.c   ****             pixels_out[3*i + 2] =  (unsigned char) (0.5f + 
 246:RGB2YCbCr.c   ****                 RGB2YCbCr_offset[2] +
 247:RGB2YCbCr.c   ****                 RGB2YCbCr[2][0]*pixels_in[3*i + 0] + 
 1913              		.loc 1 247 32 discriminator 3
 1914 14d0 C4C17C59 		vmulps	%ymm13, %ymm0, %ymm0
 1914      C5
 246:RGB2YCbCr.c   ****                 RGB2YCbCr[2][0]*pixels_in[3*i + 0] + 
 1915              		.loc 1 246 37 discriminator 3
 1916 14d5 C5FC5805 		vaddps	.LC64(%rip), %ymm0, %ymm0
 1916      00000000 
 241:RGB2YCbCr.c   ****                 RGB2YCbCr[1][1]*pixels_in[3*i + 1] + 
 1917              		.loc 1 241 52 discriminator 3
 1918 14dd C5E458ED 		vaddps	%ymm5, %ymm3, %ymm5
 243:RGB2YCbCr.c   ****                 RGB2YCbCr[1][2]*pixels_in[3*i + 2]);
 1919              		.loc 1 243 32 discriminator 3
 1920 14e1 C4C12C59 		vmulps	%ymm13, %ymm10, %ymm3
 1920      DD
 242:RGB2YCbCr.c   ****                 RGB2YCbCr[1][2]*pixels_in[3*i + 2]);
 1921              		.loc 1 242 52 discriminator 3
 1922 14e6 C5D458EB 		vaddps	%ymm3, %ymm5, %ymm5
 241:RGB2YCbCr.c   ****                 RGB2YCbCr[1][1]*pixels_in[3*i + 1] + 
 1923              		.loc 1 241 32 discriminator 3
 1924 14ea C584591D 		vmulps	.LC36(%rip), %ymm15, %ymm3
 1924      00000000 
 1925 14f2 C57C287D 		vmovaps	-80(%rbp), %ymm15
 1925      B0
 240:RGB2YCbCr.c   ****                 RGB2YCbCr[1][0]*pixels_in[3*i + 0] + 
 1926              		.loc 1 240 37 discriminator 3
 1927 14f7 C5645835 		vaddps	.LC64(%rip), %ymm3, %ymm14
 1927      00000000 
 242:RGB2YCbCr.c   ****                 RGB2YCbCr[1][2]*pixels_in[3*i + 2]);
 1928              		.loc 1 242 32 discriminator 3
 1929 14ff C5C4591D 		vmulps	.LC37(%rip), %ymm7, %ymm3
 1929      00000000 
 239:RGB2YCbCr.c   ****                 RGB2YCbCr_offset[1] +
 1930              		.loc 1 239 35 discriminator 3
 1931 1507 C5FE5BED 		vcvttps2dq	%ymm5, %ymm5
 1932 150b C5D5DB2D 		vpand	.LC34(%rip), %ymm5, %ymm5
 1932      00000000 
 241:RGB2YCbCr.c   ****                 RGB2YCbCr[1][1]*pixels_in[3*i + 1] + 
 1933              		.loc 1 241 52 discriminator 3
 1934 1513 C58C58DB 		vaddps	%ymm3, %ymm14, %ymm3
 243:RGB2YCbCr.c   ****             /* B */
 1935              		.loc 1 243 32 discriminator 3
 1936 1517 C4414C59 		vmulps	%ymm13, %ymm6, %ymm14
 1936      F5
 242:RGB2YCbCr.c   ****                 RGB2YCbCr[1][2]*pixels_in[3*i + 2]);
 1937              		.loc 1 242 52 discriminator 3
 1938 151c C4416458 		vaddps	%ymm14, %ymm3, %ymm14
 1938      F6
 239:RGB2YCbCr.c   ****                 RGB2YCbCr_offset[1] +
 1939              		.loc 1 239 35 discriminator 3
 1940 1521 C4417E5B 		vcvttps2dq	%ymm14, %ymm14
 1940      F6
 1941 1526 C50DDB35 		vpand	.LC34(%rip), %ymm14, %ymm14
 1941      00000000 
 1942 152e C4C2552B 		vpackusdw	%ymm14, %ymm5, %ymm5
 1942      EE
 241:RGB2YCbCr.c   ****                 RGB2YCbCr[1][1]*pixels_in[3*i + 1] + 
 1943              		.loc 1 241 32 discriminator 3
 1944 1533 C57C2875 		vmovaps	-112(%rbp), %ymm14
 1944      90
 239:RGB2YCbCr.c   ****                 RGB2YCbCr_offset[1] +
 1945              		.loc 1 239 35 discriminator 3
 1946 1538 C4E3FD00 		vpermq	$216, %ymm5, %ymm3
 1946      DDD8
 1947 153e C5E5DB1D 		vpand	.LC35(%rip), %ymm3, %ymm3
 1947      00000000 
 241:RGB2YCbCr.c   ****                 RGB2YCbCr[1][1]*pixels_in[3*i + 1] + 
 1948              		.loc 1 241 32 discriminator 3
 1949 1546 C58C592D 		vmulps	.LC36(%rip), %ymm14, %ymm5
 1949      00000000 
 240:RGB2YCbCr.c   ****                 RGB2YCbCr[1][0]*pixels_in[3*i + 0] + 
 1950              		.loc 1 240 37 discriminator 3
 1951 154e C5545835 		vaddps	.LC64(%rip), %ymm5, %ymm14
 1951      00000000 
 242:RGB2YCbCr.c   ****                 RGB2YCbCr[1][2]*pixels_in[3*i + 2]);
 1952              		.loc 1 242 32 discriminator 3
 1953 1556 C5B4592D 		vmulps	.LC37(%rip), %ymm9, %ymm5
 1953      00000000 
 241:RGB2YCbCr.c   ****                 RGB2YCbCr[1][1]*pixels_in[3*i + 1] + 
 1954              		.loc 1 241 52 discriminator 3
 1955 155e C58C58ED 		vaddps	%ymm5, %ymm14, %ymm5
 243:RGB2YCbCr.c   ****             /* B */
 1956              		.loc 1 243 32 discriminator 3
 1957 1562 C4413C59 		vmulps	%ymm13, %ymm8, %ymm14
 1957      F5
 242:RGB2YCbCr.c   ****                 RGB2YCbCr[1][2]*pixels_in[3*i + 2]);
 1958              		.loc 1 242 52 discriminator 3
 1959 1567 C4C15458 		vaddps	%ymm14, %ymm5, %ymm5
 1959      EE
 241:RGB2YCbCr.c   ****                 RGB2YCbCr[1][1]*pixels_in[3*i + 1] + 
 1960              		.loc 1 241 32 discriminator 3
 1961 156c C5045935 		vmulps	.LC36(%rip), %ymm15, %ymm14
 1961      00000000 
 240:RGB2YCbCr.c   ****                 RGB2YCbCr[1][0]*pixels_in[3*i + 0] + 
 1962              		.loc 1 240 37 discriminator 3
 1963 1574 C50C583D 		vaddps	.LC64(%rip), %ymm14, %ymm15
 1963      00000000 
 242:RGB2YCbCr.c   ****                 RGB2YCbCr[1][2]*pixels_in[3*i + 2]);
 1964              		.loc 1 242 32 discriminator 3
 1965 157c C55C5935 		vmulps	.LC37(%rip), %ymm4, %ymm14
 1965      00000000 
 239:RGB2YCbCr.c   ****                 RGB2YCbCr_offset[1] +
 1966              		.loc 1 239 35 discriminator 3
 1967 1584 C5FE5BED 		vcvttps2dq	%ymm5, %ymm5
 1968 1588 C5D5DB2D 		vpand	.LC34(%rip), %ymm5, %ymm5
 1968      00000000 
 241:RGB2YCbCr.c   ****                 RGB2YCbCr[1][1]*pixels_in[3*i + 1] + 
 1969              		.loc 1 241 52 discriminator 3
 1970 1590 C4410458 		vaddps	%ymm14, %ymm15, %ymm14
 1970      F6
 243:RGB2YCbCr.c   ****             /* B */
 1971              		.loc 1 243 32 discriminator 3
 1972 1595 C4416C59 		vmulps	%ymm13, %ymm2, %ymm15
 1972      FD
 242:RGB2YCbCr.c   ****                 RGB2YCbCr[1][2]*pixels_in[3*i + 2]);
 1973              		.loc 1 242 52 discriminator 3
 1974 159a C4410C58 		vaddps	%ymm15, %ymm14, %ymm14
 1974      F7
 239:RGB2YCbCr.c   ****                 RGB2YCbCr_offset[1] +
 1975              		.loc 1 239 35 discriminator 3
 1976 159f C4417E5B 		vcvttps2dq	%ymm14, %ymm14
 1976      F6
 1977 15a4 C50DDB35 		vpand	.LC34(%rip), %ymm14, %ymm14
 1977      00000000 
 1978 15ac C4C2552B 		vpackusdw	%ymm14, %ymm5, %ymm5
 1978      EE
 1979 15b1 C4E3FD00 		vpermq	$216, %ymm5, %ymm5
 1979      EDD8
 1980 15b7 C5D5DB2D 		vpand	.LC35(%rip), %ymm5, %ymm5
 1980      00000000 
 248:RGB2YCbCr.c   ****                 RGB2YCbCr[2][1]*pixels_in[3*i + 1] + 
 1981              		.loc 1 248 32 discriminator 3
 1982 15bf C524591D 		vmulps	.LC40(%rip), %ymm11, %ymm11
 1982      00000000 
 1983 15c7 C534590D 		vmulps	.LC40(%rip), %ymm9, %ymm9
 1983      00000000 
 239:RGB2YCbCr.c   ****                 RGB2YCbCr_offset[1] +
 1984              		.loc 1 239 35 discriminator 3
 1985 15cf C5E567DD 		vpackuswb	%ymm5, %ymm3, %ymm3
 247:RGB2YCbCr.c   ****                 RGB2YCbCr[2][1]*pixels_in[3*i + 1] + 
 1986              		.loc 1 247 32 discriminator 3
 1987 15d3 C594596D 		vmulps	-112(%rbp), %ymm13, %ymm5
 1987      90
 239:RGB2YCbCr.c   ****                 RGB2YCbCr_offset[1] +
 1988              		.loc 1 239 35 discriminator 3
 1989 15d8 C4E3FD00 		vpermq	$216, %ymm3, %ymm3
 1989      DBD8
 245:RGB2YCbCr.c   ****                 RGB2YCbCr_offset[2] +
 1990              		.loc 1 245 13 is_stmt 1 discriminator 3
 246:RGB2YCbCr.c   ****                 RGB2YCbCr[2][0]*pixels_in[3*i + 0] + 
 1991              		.loc 1 246 37 is_stmt 0 discriminator 3
 1992 15de C5D4582D 		vaddps	.LC64(%rip), %ymm5, %ymm5
 1992      00000000 
 1993              		.loc 1 248 32 discriminator 3
 1994 15e6 C5C4593D 		vmulps	.LC40(%rip), %ymm7, %ymm7
 1994      00000000 
 1995 15ee C5DC5925 		vmulps	.LC40(%rip), %ymm4, %ymm4
 1995      00000000 
 247:RGB2YCbCr.c   ****                 RGB2YCbCr[2][1]*pixels_in[3*i + 1] + 
 1996              		.loc 1 247 52 discriminator 3
 1997 15f6 C4417C58 		vaddps	%ymm11, %ymm0, %ymm11
 1997      DB
 247:RGB2YCbCr.c   ****                 RGB2YCbCr[2][1]*pixels_in[3*i + 1] + 
 1998              		.loc 1 247 32 discriminator 3
 1999 15fb C5945985 		vmulps	-144(%rbp), %ymm13, %ymm0
 1999      70FFFFFF 
 247:RGB2YCbCr.c   ****                 RGB2YCbCr[2][1]*pixels_in[3*i + 1] + 
 2000              		.loc 1 247 52 discriminator 3
 2001 1603 C4415458 		vaddps	%ymm9, %ymm5, %ymm9
 2001      C9
 247:RGB2YCbCr.c   ****                 RGB2YCbCr[2][1]*pixels_in[3*i + 1] + 
 2002              		.loc 1 247 32 discriminator 3
 2003 1608 C594596D 		vmulps	-80(%rbp), %ymm13, %ymm5
 2003      B0
 246:RGB2YCbCr.c   ****                 RGB2YCbCr[2][0]*pixels_in[3*i + 0] + 
 2004              		.loc 1 246 37 discriminator 3
 2005 160d C5FC5805 		vaddps	.LC64(%rip), %ymm0, %ymm0
 2005      00000000 
 2006 1615 C5D4582D 		vaddps	.LC64(%rip), %ymm5, %ymm5
 2006      00000000 
 249:RGB2YCbCr.c   ****                 RGB2YCbCr[2][2]*pixels_in[3*i + 2]);
 2007              		.loc 1 249 32 discriminator 3
 2008 161d C5EC5915 		vmulps	.LC41(%rip), %ymm2, %ymm2
 2008      00000000 
 2009 1625 C52C5915 		vmulps	.LC41(%rip), %ymm10, %ymm10
 2009      00000000 
 2010 162d C5CC5935 		vmulps	.LC41(%rip), %ymm6, %ymm6
 2010      00000000 
 247:RGB2YCbCr.c   ****                 RGB2YCbCr[2][1]*pixels_in[3*i + 1] + 
 2011              		.loc 1 247 52 discriminator 3
 2012 1635 C5FC58FF 		vaddps	%ymm7, %ymm0, %ymm7
 2013              		.loc 1 249 32 discriminator 3
 2014 1639 C53C5905 		vmulps	.LC41(%rip), %ymm8, %ymm8
 2014      00000000 
 247:RGB2YCbCr.c   ****                 RGB2YCbCr[2][1]*pixels_in[3*i + 1] + 
 2015              		.loc 1 247 52 discriminator 3
 2016 1641 C5D458E4 		vaddps	%ymm4, %ymm5, %ymm4
 248:RGB2YCbCr.c   ****                 RGB2YCbCr[2][2]*pixels_in[3*i + 2]);
 2017              		.loc 1 248 52 discriminator 3
 2018 1645 C4412458 		vaddps	%ymm10, %ymm11, %ymm10
 2018      D2
 2019 164a C5DC58E2 		vaddps	%ymm2, %ymm4, %ymm4
 2020 164e C5C458F6 		vaddps	%ymm6, %ymm7, %ymm6
 2021 1652 C4413458 		vaddps	%ymm8, %ymm9, %ymm8
 2021      C0
 245:RGB2YCbCr.c   ****                 RGB2YCbCr_offset[2] +
 2022              		.loc 1 245 36 discriminator 3
 2023 1657 C4417E5B 		vcvttps2dq	%ymm10, %ymm10
 2023      D2
 2024 165c C5FE5BE4 		vcvttps2dq	%ymm4, %ymm4
 2025 1660 C5ADDB05 		vpand	.LC34(%rip), %ymm10, %ymm0
 2025      00000000 
 2026 1668 C5DDDB25 		vpand	.LC34(%rip), %ymm4, %ymm4
 2026      00000000 
 2027 1670 C5FE5BF6 		vcvttps2dq	%ymm6, %ymm6
 2028 1674 C5CDDB35 		vpand	.LC34(%rip), %ymm6, %ymm6
 2028      00000000 
 2029 167c C4417E5B 		vcvttps2dq	%ymm8, %ymm8
 2029      C0
 2030 1681 C5BDDB15 		vpand	.LC34(%rip), %ymm8, %ymm2
 2030      00000000 
 2031 1689 C4E27D2B 		vpackusdw	%ymm6, %ymm0, %ymm0
 2031      C6
 2032 168e C4E26D2B 		vpackusdw	%ymm4, %ymm2, %ymm2
 2032      D4
 2033 1693 C4E3FD00 		vpermq	$216, %ymm0, %ymm0
 2033      C0D8
 2034 1699 C5FDDB05 		vpand	.LC35(%rip), %ymm0, %ymm0
 2034      00000000 
 245:RGB2YCbCr.c   ****                 RGB2YCbCr_offset[2] +
 2035              		.loc 1 245 33 discriminator 3
 2036 16a1 C4E26500 		vpshufb	.LC43(%rip), %ymm3, %ymm4
 2036      25000000 
 2036      00
 245:RGB2YCbCr.c   ****                 RGB2YCbCr_offset[2] +
 2037              		.loc 1 245 36 discriminator 3
 2038 16aa C4E3FD00 		vpermq	$216, %ymm2, %ymm2
 2038      D2D8
 2039 16b0 C5EDDB15 		vpand	.LC35(%rip), %ymm2, %ymm2
 2039      00000000 
 245:RGB2YCbCr.c   ****                 RGB2YCbCr_offset[2] +
 2040              		.loc 1 245 33 discriminator 3
 2041 16b8 C4E3FD00 		vpermq	$78, %ymm4, %ymm5
 2041      EC4E
 2042 16be C4E26500 		vpshufb	.LC45(%rip), %ymm3, %ymm4
 2042      25000000 
 2042      00
 245:RGB2YCbCr.c   ****                 RGB2YCbCr_offset[2] +
 2043              		.loc 1 245 36 discriminator 3
 2044 16c7 C5FD67D2 		vpackuswb	%ymm2, %ymm0, %ymm2
 245:RGB2YCbCr.c   ****                 RGB2YCbCr_offset[2] +
 2045              		.loc 1 245 33 discriminator 3
 2046 16cb C5DDEBE5 		vpor	%ymm5, %ymm4, %ymm4
 2047 16cf C4E27500 		vpshufb	.LC42(%rip), %ymm1, %ymm0
 2047      05000000 
 2047      00
 2048 16d8 C4E3FD00 		vpermq	$78, %ymm0, %ymm6
 2048      F04E
 245:RGB2YCbCr.c   ****                 RGB2YCbCr_offset[2] +
 2049              		.loc 1 245 36 discriminator 3
 2050 16de C4E3FD00 		vpermq	$216, %ymm2, %ymm2
 2050      D2D8
 245:RGB2YCbCr.c   ****                 RGB2YCbCr_offset[2] +
 2051              		.loc 1 245 33 discriminator 3
 2052 16e4 C4E27500 		vpshufb	.LC44(%rip), %ymm1, %ymm0
 2052      05000000 
 2052      00
 2053 16ed C5FDEBC6 		vpor	%ymm6, %ymm0, %ymm0
 2054 16f1 C5FDEBC4 		vpor	%ymm4, %ymm0, %ymm0
 2055 16f5 C4E26D00 		vpshufb	.LC46(%rip), %ymm2, %ymm4
 2055      25000000 
 2055      00
 2056 16fe C4E27D00 		vpshufb	.LC47(%rip), %ymm0, %ymm0
 2056      05000000 
 2056      00
 2057 1707 C4E3FD00 		vpermq	$78, %ymm4, %ymm5
 2057      EC4E
 2058 170d C4E26D00 		vpshufb	.LC48(%rip), %ymm2, %ymm4
 2058      25000000 
 2058      00
 2059 1716 C5DDEBE5 		vpor	%ymm5, %ymm4, %ymm4
 2060 171a C4E26500 		vpshufb	.LC51(%rip), %ymm3, %ymm5
 2060      2D000000 
 2060      00
 2061 1723 C5FDEBC4 		vpor	%ymm4, %ymm0, %ymm0
 2062 1727 C5FE7F42 		vmovdqu	%ymm0, -96(%rdx)
 2062      A0
 2063 172c C4E27500 		vpshufb	.LC49(%rip), %ymm1, %ymm0
 2063      05000000 
 2063      00
 2064 1735 C4E3FD00 		vpermq	$78, %ymm0, %ymm4
 2064      E04E
 2065 173b C4E27500 		vpshufb	.LC50(%rip), %ymm1, %ymm0
 2065      05000000 
 2065      00
 2066 1744 C5FDEBC4 		vpor	%ymm4, %ymm0, %ymm0
 2067 1748 C4E26D00 		vpshufb	.LC52(%rip), %ymm2, %ymm4
 2067      25000000 
 2067      00
 2068 1751 C5FD6F3D 		vmovdqa	.LC53(%rip), %ymm7
 2068      00000000 
 2069 1759 C5FDEBC5 		vpor	%ymm5, %ymm0, %ymm0
 2070 175d C4E26500 		vpshufb	.LC55(%rip), %ymm3, %ymm5
 2070      2D000000 
 2070      00
 2071 1766 C4E26500 		vpshufb	.LC57(%rip), %ymm3, %ymm3
 2071      1D000000 
 2071      00
 2072 176f C4E37D4C 		vpblendvb	%ymm7, %ymm4, %ymm0, %ymm0
 2072      C470
 2073 1775 C4E3FD00 		vpermq	$78, %ymm5, %ymm5
 2073      ED4E
 2074 177b C5FE7F42 		vmovdqu	%ymm0, -64(%rdx)
 2074      C0
 2075 1780 C5E5EBDD 		vpor	%ymm5, %ymm3, %ymm3
 2076 1784 C4E27500 		vpshufb	.LC54(%rip), %ymm1, %ymm0
 2076      05000000 
 2076      00
 2077 178d C4E3FD00 		vpermq	$78, %ymm0, %ymm4
 2077      E04E
 2078 1793 C4E27500 		vpshufb	.LC56(%rip), %ymm1, %ymm0
 2078      05000000 
 2078      00
 2079 179c C4E26D00 		vpshufb	.LC58(%rip), %ymm2, %ymm1
 2079      0D000000 
 2079      00
 2080 17a5 C5FDEBC4 		vpor	%ymm4, %ymm0, %ymm0
 2081 17a9 C4E3FD00 		vpermq	$78, %ymm1, %ymm1
 2081      C94E
 2082 17af C4E26D00 		vpshufb	.LC60(%rip), %ymm2, %ymm2
 2082      15000000 
 2082      00
 2083 17b8 C5FDEBC3 		vpor	%ymm3, %ymm0, %ymm0
 2084 17bc C5EDEBD1 		vpor	%ymm1, %ymm2, %ymm2
 2085 17c0 C4E27D00 		vpshufb	.LC59(%rip), %ymm0, %ymm0
 2085      05000000 
 2085      00
 2086 17c9 C5FDEBC2 		vpor	%ymm2, %ymm0, %ymm0
 2087 17cd C5FE7F42 		vmovdqu	%ymm0, -32(%rdx)
 2087      E0
 229:RGB2YCbCr.c   ****         {
 2088              		.loc 1 229 43 is_stmt 1 discriminator 3
 229:RGB2YCbCr.c   ****         {
 2089              		.loc 1 229 25 discriminator 3
 2090 17d2 4C39E0   		cmpq	%r12, %rax
 2091 17d5 0F85FDF9 		jne	.L42
 2091      FFFF
 2092 17db 8B8558FF 		movl	-168(%rbp), %eax
 2092      FFFF
 2093 17e1 4139C5   		cmpl	%eax, %r13d
 2094 17e4 0F842101 		je	.L47
 2094      0000
 229:RGB2YCbCr.c   ****         {
 2095              		.loc 1 229 18 is_stmt 0
 2096 17ea 89C6     		movl	%eax, %esi
 2097              	.L41:
 2098 17ec 488B8568 		movq	-152(%rbp), %rax
 2098      FFFFFF
 2099 17f3 8D1476   		leal	(%rsi,%rsi,2), %edx
 2100 17f6 C57A101D 		vmovss	.LC1(%rip), %xmm11
 2100      00000000 
 2101 17fe 4863D2   		movslq	%edx, %rdx
 2102 1801 C5FA101D 		vmovss	.LC8(%rip), %xmm3
 2102      00000000 
 2103 1809 C57A1015 		vmovss	.LC3(%rip), %xmm10
 2103      00000000 
 2104 1811 C57A100D 		vmovss	.LC4(%rip), %xmm9
 2104      00000000 
 2105 1819 C57A1005 		vmovss	.LC5(%rip), %xmm8
 2105      00000000 
 2106 1821 4801D0   		addq	%rdx, %rax
 2107 1824 C5FA1025 		vmovss	.LC65(%rip), %xmm4
 2107      00000000 
 2108 182c C5FA103D 		vmovss	.LC7(%rip), %xmm7
 2108      00000000 
 2109 1834 C5FA1035 		vmovss	.LC9(%rip), %xmm6
 2109      00000000 
 2110 183c C5FA102D 		vmovss	.LC10(%rip), %xmm5
 2110      00000000 
 2111 1844 48039560 		addq	-160(%rbp), %rdx
 2111      FFFFFF
 2112 184b 0F1F4400 		.p2align 4,,10
 2112      00
 2113              		.p2align 3
 2114              	.L44:
 2115              	.LVL88:
 233:RGB2YCbCr.c   ****                 RGB2YCbCr_offset[0] +
 2116              		.loc 1 233 13 is_stmt 1
 235:RGB2YCbCr.c   ****                 RGB2YCbCr[0][1]*pixels_in[3*i + 1] + 
 2117              		.loc 1 235 42 is_stmt 0
 2118 1850 0FB608   		movzbl	(%rax), %ecx
 229:RGB2YCbCr.c   ****         {
 2119              		.loc 1 229 44
 2120 1853 FFC6     		incl	%esi
 2121              	.LVL89:
 2122 1855 4883C003 		addq	$3, %rax
 2123 1859 4883C203 		addq	$3, %rdx
 235:RGB2YCbCr.c   ****                 RGB2YCbCr[0][1]*pixels_in[3*i + 1] + 
 2124              		.loc 1 235 32
 2125 185d C59A2AC9 		vcvtsi2ssl	%ecx, %xmm12, %xmm1
 236:RGB2YCbCr.c   ****                 RGB2YCbCr[0][2]*pixels_in[3*i + 2]);
 2126              		.loc 1 236 42
 2127 1861 0FB648FE 		movzbl	-2(%rax), %ecx
 236:RGB2YCbCr.c   ****                 RGB2YCbCr[0][2]*pixels_in[3*i + 2]);
 2128              		.loc 1 236 32
 2129 1865 C59A2AC1 		vcvtsi2ssl	%ecx, %xmm12, %xmm0
 237:RGB2YCbCr.c   ****             /* G */
 2130              		.loc 1 237 42
 2131 1869 0FB648FF 		movzbl	-1(%rax), %ecx
 235:RGB2YCbCr.c   ****                 RGB2YCbCr[0][1]*pixels_in[3*i + 1] + 
 2132              		.loc 1 235 32
 2133 186d C4C17259 		vmulss	%xmm11, %xmm1, %xmm1
 2133      CB
 236:RGB2YCbCr.c   ****                 RGB2YCbCr[0][2]*pixels_in[3*i + 2]);
 2134              		.loc 1 236 32
 2135 1872 C4C17A59 		vmulss	%xmm10, %xmm0, %xmm0
 2135      C2
 234:RGB2YCbCr.c   ****                 RGB2YCbCr[0][0]*pixels_in[3*i + 0] + 
 2136              		.loc 1 234 37
 2137 1877 C5F258D3 		vaddss	%xmm3, %xmm1, %xmm2
 235:RGB2YCbCr.c   ****                 RGB2YCbCr[0][1]*pixels_in[3*i + 1] + 
 2138              		.loc 1 235 52
 2139 187b C5EA58C8 		vaddss	%xmm0, %xmm2, %xmm1
 237:RGB2YCbCr.c   ****             /* G */
 2140              		.loc 1 237 32
 2141 187f C59A2AC1 		vcvtsi2ssl	%ecx, %xmm12, %xmm0
 2142 1883 C4C17A59 		vmulss	%xmm9, %xmm0, %xmm0
 2142      C1
 236:RGB2YCbCr.c   ****                 RGB2YCbCr[0][2]*pixels_in[3*i + 2]);
 2143              		.loc 1 236 52
 2144 1888 C5F258C0 		vaddss	%xmm0, %xmm1, %xmm0
 233:RGB2YCbCr.c   ****                 RGB2YCbCr_offset[0] +
 2145              		.loc 1 233 35
 2146 188c C5FA2CC8 		vcvttss2sil	%xmm0, %ecx
 2147 1890 884AFD   		movb	%cl, -3(%rdx)
 239:RGB2YCbCr.c   ****                 RGB2YCbCr_offset[1] +
 2148              		.loc 1 239 13 is_stmt 1
 241:RGB2YCbCr.c   ****                 RGB2YCbCr[1][1]*pixels_in[3*i + 1] + 
 2149              		.loc 1 241 42 is_stmt 0
 2150 1893 0FB648FD 		movzbl	-3(%rax), %ecx
 241:RGB2YCbCr.c   ****                 RGB2YCbCr[1][1]*pixels_in[3*i + 1] + 
 2151              		.loc 1 241 32
 2152 1897 C59A2AC9 		vcvtsi2ssl	%ecx, %xmm12, %xmm1
 242:RGB2YCbCr.c   ****                 RGB2YCbCr[1][2]*pixels_in[3*i + 2]);
 2153              		.loc 1 242 42
 2154 189b 0FB648FE 		movzbl	-2(%rax), %ecx
 242:RGB2YCbCr.c   ****                 RGB2YCbCr[1][2]*pixels_in[3*i + 2]);
 2155              		.loc 1 242 32
 2156 189f C59A2AC1 		vcvtsi2ssl	%ecx, %xmm12, %xmm0
 243:RGB2YCbCr.c   ****             /* B */
 2157              		.loc 1 243 42
 2158 18a3 0FB648FF 		movzbl	-1(%rax), %ecx
 241:RGB2YCbCr.c   ****                 RGB2YCbCr[1][1]*pixels_in[3*i + 1] + 
 2159              		.loc 1 241 32
 2160 18a7 C4C17259 		vmulss	%xmm8, %xmm1, %xmm1
 2160      C8
 242:RGB2YCbCr.c   ****                 RGB2YCbCr[1][2]*pixels_in[3*i + 2]);
 2161              		.loc 1 242 32
 2162 18ac C5FA59C7 		vmulss	%xmm7, %xmm0, %xmm0
 240:RGB2YCbCr.c   ****                 RGB2YCbCr[1][0]*pixels_in[3*i + 0] + 
 2163              		.loc 1 240 37
 2164 18b0 C5F258D4 		vaddss	%xmm4, %xmm1, %xmm2
 241:RGB2YCbCr.c   ****                 RGB2YCbCr[1][1]*pixels_in[3*i + 1] + 
 2165              		.loc 1 241 52
 2166 18b4 C5EA58C8 		vaddss	%xmm0, %xmm2, %xmm1
 243:RGB2YCbCr.c   ****             /* B */
 2167              		.loc 1 243 32
 2168 18b8 C59A2AC1 		vcvtsi2ssl	%ecx, %xmm12, %xmm0
 2169 18bc C5FA59C3 		vmulss	%xmm3, %xmm0, %xmm0
 242:RGB2YCbCr.c   ****                 RGB2YCbCr[1][2]*pixels_in[3*i + 2]);
 2170              		.loc 1 242 52
 2171 18c0 C5F258C0 		vaddss	%xmm0, %xmm1, %xmm0
 239:RGB2YCbCr.c   ****                 RGB2YCbCr_offset[1] +
 2172              		.loc 1 239 35
 2173 18c4 C5FA2CC8 		vcvttss2sil	%xmm0, %ecx
 2174 18c8 884AFE   		movb	%cl, -2(%rdx)
 245:RGB2YCbCr.c   ****                 RGB2YCbCr_offset[2] +
 2175              		.loc 1 245 13 is_stmt 1
 247:RGB2YCbCr.c   ****                 RGB2YCbCr[2][1]*pixels_in[3*i + 1] + 
 2176              		.loc 1 247 42 is_stmt 0
 2177 18cb 0FB648FD 		movzbl	-3(%rax), %ecx
 247:RGB2YCbCr.c   ****                 RGB2YCbCr[2][1]*pixels_in[3*i + 1] + 
 2178              		.loc 1 247 32
 2179 18cf C59A2AC9 		vcvtsi2ssl	%ecx, %xmm12, %xmm1
 248:RGB2YCbCr.c   ****                 RGB2YCbCr[2][2]*pixels_in[3*i + 2]);
 2180              		.loc 1 248 42
 2181 18d3 0FB648FE 		movzbl	-2(%rax), %ecx
 248:RGB2YCbCr.c   ****                 RGB2YCbCr[2][2]*pixels_in[3*i + 2]);
 2182              		.loc 1 248 32
 2183 18d7 C59A2AC1 		vcvtsi2ssl	%ecx, %xmm12, %xmm0
 2184              		.loc 1 249 42
 2185 18db 0FB648FF 		movzbl	-1(%rax), %ecx
 247:RGB2YCbCr.c   ****                 RGB2YCbCr[2][1]*pixels_in[3*i + 1] + 
 2186              		.loc 1 247 32
 2187 18df C5F259CB 		vmulss	%xmm3, %xmm1, %xmm1
 248:RGB2YCbCr.c   ****                 RGB2YCbCr[2][2]*pixels_in[3*i + 2]);
 2188              		.loc 1 248 32
 2189 18e3 C5FA59C6 		vmulss	%xmm6, %xmm0, %xmm0
 246:RGB2YCbCr.c   ****                 RGB2YCbCr[2][0]*pixels_in[3*i + 0] + 
 2190              		.loc 1 246 37
 2191 18e7 C5F258D4 		vaddss	%xmm4, %xmm1, %xmm2
 247:RGB2YCbCr.c   ****                 RGB2YCbCr[2][1]*pixels_in[3*i + 1] + 
 2192              		.loc 1 247 52
 2193 18eb C5EA58C8 		vaddss	%xmm0, %xmm2, %xmm1
 2194              		.loc 1 249 32
 2195 18ef C59A2AC1 		vcvtsi2ssl	%ecx, %xmm12, %xmm0
 2196 18f3 C5FA59C5 		vmulss	%xmm5, %xmm0, %xmm0
 248:RGB2YCbCr.c   ****                 RGB2YCbCr[2][2]*pixels_in[3*i + 2]);
 2197              		.loc 1 248 52
 2198 18f7 C5F258C0 		vaddss	%xmm0, %xmm1, %xmm0
 245:RGB2YCbCr.c   ****                 RGB2YCbCr_offset[2] +
 2199              		.loc 1 245 36
 2200 18fb C5FA2CC8 		vcvttss2sil	%xmm0, %ecx
 2201 18ff 884AFF   		movb	%cl, -1(%rdx)
 229:RGB2YCbCr.c   ****         {
 2202              		.loc 1 229 43 is_stmt 1
 2203              	.LVL90:
 229:RGB2YCbCr.c   ****         {
 2204              		.loc 1 229 25
 229:RGB2YCbCr.c   ****         {
 2205              		.loc 1 229 9 is_stmt 0
 2206 1902 4139F5   		cmpl	%esi, %r13d
 2207 1905 0F8F45FF 		jg	.L44
 2207      FFFF
 2208              	.LVL91:
 2209              	.L47:
 2210              	.LBE27:
 250:RGB2YCbCr.c   ****         }
 251:RGB2YCbCr.c   ****         dummy(image_in, image_out);
 2211              		.loc 1 251 9 is_stmt 1
 2212 190b 4C89F6   		movq	%r14, %rsi
 2213 190e 4C89FF   		movq	%r15, %rdi
 2214 1911 C5F877   		vzeroupper
 2215 1914 E8000000 		call	dummy
 2215      00
 2216              	.LVL92:
 226:RGB2YCbCr.c   ****     {
 2217              		.loc 1 226 34
 226:RGB2YCbCr.c   ****     {
 2218              		.loc 1 226 22
 226:RGB2YCbCr.c   ****     {
 2219              		.loc 1 226 5 is_stmt 0
 2220 1919 FFCB     		decl	%ebx
 2221 191b C4411857 		vxorps	%xmm12, %xmm12, %xmm12
 2221      E4
 2222 1920 C57C282D 		vmovaps	.LC38(%rip), %ymm13
 2222      00000000 
 2223 1928 0F8582F8 		jne	.L40
 2223      FFFF
 2224              	.LBE30:
 252:RGB2YCbCr.c   ****     }
 253:RGB2YCbCr.c   ****     end_t = get_wall_time();
 2225              		.loc 1 253 5 is_stmt 1
 2226              		.loc 1 253 13 is_stmt 0
 2227 192e 31C0     		xorl	%eax, %eax
 2228 1930 C5F877   		vzeroupper
 2229 1933 E8000000 		call	get_wall_time
 2229      00
 2230              	.LVL93:
 254:RGB2YCbCr.c   ****     results(end_t - start_t, height*width, "RGB2Gray_cast1");
 2231              		.loc 1 254 5 is_stmt 1
 2232 1938 4489EF   		movl	%r13d, %edi
 2233 193b C5FB5C85 		vsubsd	-176(%rbp), %xmm0, %xmm0
 2233      50FFFFFF 
 2234              	.LVL94:
 255:RGB2YCbCr.c   **** }
 2235              		.loc 1 255 1 is_stmt 0
 2236 1943 4881C488 		addq	$136, %rsp
 2236      000000
 254:RGB2YCbCr.c   ****     results(end_t - start_t, height*width, "RGB2Gray_cast1");
 2237              		.loc 1 254 5
 2238 194a BE000000 		movl	$.LC66, %esi
 2238      00
 2239              		.loc 1 255 1
 2240 194f 5B       		popq	%rbx
 2241 1950 415C     		popq	%r12
 2242 1952 415D     		popq	%r13
 2243              		.cfi_remember_state
 2244              		.cfi_def_cfa 13, 0
 2245 1954 415E     		popq	%r14
 2246              	.LVL95:
 2247 1956 415F     		popq	%r15
 2248              	.LVL96:
 2249 1958 5D       		popq	%rbp
 2250              	.LVL97:
 2251 1959 498D65F0 		leaq	-16(%r13), %rsp
 2252              		.cfi_def_cfa 7, 16
 2253              	.LVL98:
 2254 195d 415D     		popq	%r13
 2255              		.cfi_def_cfa_offset 8
 254:RGB2YCbCr.c   ****     results(end_t - start_t, height*width, "RGB2Gray_cast1");
 2256              		.loc 1 254 5
 2257 195f E9000000 		jmp	results
 2257      00
 2258              	.LVL99:
 2259              	.L48:
 2260              		.cfi_restore_state
 2261              	.LBB31:
 2262              	.LBB28:
 229:RGB2YCbCr.c   ****         {
 2263              		.loc 1 229 18
 2264 1964 31F6     		xorl	%esi, %esi
 2265 1966 E981FEFF 		jmp	.L41
 2265      FF
 2266              	.LVL100:
 2267              	.L52:
 2268              	.LBE28:
 2269              	.LBE31:
 214:RGB2YCbCr.c   ****         exit(-1);
 2270              		.loc 1 214 9 is_stmt 1
 2271 196b BF000000 		movl	$.LC0, %edi
 2271      00
 2272              	.LVL101:
 2273 1970 E8000000 		call	puts
 2273      00
 2274              	.LVL102:
 215:RGB2YCbCr.c   ****     }
 2275              		.loc 1 215 9
 2276 1975 83CFFF   		orl	$-1, %edi
 2277 1978 E8000000 		call	exit
 2277      00
 2278              	.LVL103:
 2279              		.cfi_endproc
 2280              	.LFE17:
 2282              		.section	.rodata.str1.1
 2283              	.LC68:
 2284 0042 52474232 		.string	"RGB2Gray_cast2"
 2284      47726179 
 2284      5F636173 
 2284      743200
 2285              		.text
 2286 197d 0F1F00   		.p2align 4
 2287              		.globl	RGB2YCbCr_cast2
 2289              	RGB2YCbCr_cast2:
 2290              	.LFB18:
 256:RGB2YCbCr.c   **** //----------------------------------------------------------------------------
 257:RGB2YCbCr.c   **** 
 258:RGB2YCbCr.c   **** /* cambios respecto RGB2YCbCr_cast1(): no suma 0.5f a los valores Y,Cb,Cr calculados */
 259:RGB2YCbCr.c   **** void
 260:RGB2YCbCr.c   **** RGB2YCbCr_cast2(image_t * restrict image_in, image_t * restrict image_out)
 261:RGB2YCbCr.c   **** {
 2291              		.loc 1 261 1
 2292              		.cfi_startproc
 2293              	.LVL104:
 262:RGB2YCbCr.c   ****     double start_t, end_t;
 2294              		.loc 1 262 5
 263:RGB2YCbCr.c   ****     const int height = image_in->height;
 2295              		.loc 1 263 5
 261:RGB2YCbCr.c   ****     double start_t, end_t;
 2296              		.loc 1 261 1 is_stmt 0
 2297 1980 4155     		pushq	%r13
 2298              		.cfi_def_cfa_offset 16
 2299              		.cfi_offset 13, -16
 2300 1982 4C8D6C24 		leaq	16(%rsp), %r13
 2300      10
 2301              		.cfi_def_cfa 13, 0
 2302 1987 4883E4E0 		andq	$-32, %rsp
 2303 198b 41FF75F8 		pushq	-8(%r13)
 2304 198f 55       		pushq	%rbp
 2305              		.cfi_escape 0x10,0x6,0x2,0x76,0
 2306 1990 4889E5   		movq	%rsp, %rbp
 2307 1993 4157     		pushq	%r15
 2308 1995 4156     		pushq	%r14
 2309 1997 4155     		pushq	%r13
 2310              		.cfi_escape 0xf,0x3,0x76,0x68,0x6
 2311              		.cfi_escape 0x10,0xf,0x2,0x76,0x78
 2312              		.cfi_escape 0x10,0xe,0x2,0x76,0x70
 2313 1999 4154     		pushq	%r12
 2314 199b 53       		pushq	%rbx
 2315 199c 4881EC88 		subq	$136, %rsp
 2315      000000
 2316              		.cfi_escape 0x10,0xc,0x2,0x76,0x60
 2317              		.cfi_escape 0x10,0x3,0x2,0x76,0x58
 264:RGB2YCbCr.c   ****     const int width =  image_in->width;
 265:RGB2YCbCr.c   ****     unsigned char * restrict pixels_in  = image_in->pixels;
 2318              		.loc 1 265 30
 2319 19a3 488B07   		movq	(%rdi), %rax
 266:RGB2YCbCr.c   ****     unsigned char * restrict pixels_out = image_out->pixels;
 267:RGB2YCbCr.c   **** 
 268:RGB2YCbCr.c   ****     if (image_in->bytes_per_pixel != 3)
 2320              		.loc 1 268 8
 2321 19a6 837F1003 		cmpl	$3, 16(%rdi)
 263:RGB2YCbCr.c   ****     const int width =  image_in->width;
 2322              		.loc 1 263 15
 2323 19aa 8B5F0C   		movl	12(%rdi), %ebx
 2324              	.LVL105:
 264:RGB2YCbCr.c   ****     const int width =  image_in->width;
 2325              		.loc 1 264 5 is_stmt 1
 264:RGB2YCbCr.c   ****     const int width =  image_in->width;
 2326              		.loc 1 264 15 is_stmt 0
 2327 19ad 448B6F08 		movl	8(%rdi), %r13d
 2328              	.LVL106:
 265:RGB2YCbCr.c   ****     unsigned char * restrict pixels_out = image_out->pixels;
 2329              		.loc 1 265 5 is_stmt 1
 265:RGB2YCbCr.c   ****     unsigned char * restrict pixels_out = image_out->pixels;
 2330              		.loc 1 265 30 is_stmt 0
 2331 19b1 48898568 		movq	%rax, -152(%rbp)
 2331      FFFFFF
 2332              	.LVL107:
 266:RGB2YCbCr.c   ****     unsigned char * restrict pixels_out = image_out->pixels;
 2333              		.loc 1 266 5 is_stmt 1
 266:RGB2YCbCr.c   ****     unsigned char * restrict pixels_out = image_out->pixels;
 2334              		.loc 1 266 30 is_stmt 0
 2335 19b8 488B06   		movq	(%rsi), %rax
 2336              	.LVL108:
 2337 19bb 48898560 		movq	%rax, -160(%rbp)
 2337      FFFFFF
 2338              	.LVL109:
 2339              		.loc 1 268 5 is_stmt 1
 2340              		.loc 1 268 8 is_stmt 0
 2341 19c2 0F853C08 		jne	.L67
 2341      0000
 269:RGB2YCbCr.c   ****     {
 270:RGB2YCbCr.c   ****         printf("ERROR: input image has to be RGB\n");
 271:RGB2YCbCr.c   ****         exit(-1);
 272:RGB2YCbCr.c   ****     }
 273:RGB2YCbCr.c   ****     
 274:RGB2YCbCr.c   ****     /* fill struct fields */
 275:RGB2YCbCr.c   ****     image_out->width  = width;
 276:RGB2YCbCr.c   ****     image_out->height = height;
 277:RGB2YCbCr.c   ****     image_out->bytes_per_pixel = 3;
 2342              		.loc 1 277 32
 2343 19c8 48B80300 		movabsq	$12884901891, %rax
 2343      00000300 
 2343      0000
 2344              	.LVL110:
 275:RGB2YCbCr.c   ****     image_out->height = height;
 2345              		.loc 1 275 23
 2346 19d2 44896E08 		movl	%r13d, 8(%rsi)
 2347              	.LBB32:
 2348              	.LBB33:
 278:RGB2YCbCr.c   ****     image_out->color_space = JCS_YCbCr;
 279:RGB2YCbCr.c   **** 
 280:RGB2YCbCr.c   ****     start_t = get_wall_time();
 281:RGB2YCbCr.c   **** 
 282:RGB2YCbCr.c   ****     for (int it = 0; it < NITER; it++)
 283:RGB2YCbCr.c   ****     {
 284:RGB2YCbCr.c   ****         #pragma GCC ivdep
 285:RGB2YCbCr.c   ****         for (int i = 0; i < height*width; i++)
 2349              		.loc 1 285 35
 2350 19d6 440FAFEB 		imull	%ebx, %r13d
 2351              	.LVL111:
 2352 19da 4989FF   		movq	%rdi, %r15
 2353              	.LBE33:
 2354              	.LBE32:
 276:RGB2YCbCr.c   ****     image_out->bytes_per_pixel = 3;
 2355              		.loc 1 276 23
 2356 19dd 895E0C   		movl	%ebx, 12(%rsi)
 2357 19e0 4989F6   		movq	%rsi, %r14
 275:RGB2YCbCr.c   ****     image_out->height = height;
 2358              		.loc 1 275 5 is_stmt 1
 276:RGB2YCbCr.c   ****     image_out->bytes_per_pixel = 3;
 2359              		.loc 1 276 5
 277:RGB2YCbCr.c   ****     image_out->color_space = JCS_YCbCr;
 2360              		.loc 1 277 5
 278:RGB2YCbCr.c   ****     image_out->color_space = JCS_YCbCr;
 2361              		.loc 1 278 5
 2362              	.LBB37:
 2363              	.LBB34:
 2364              		.loc 1 285 35 is_stmt 0
 2365 19e3 BB0A0000 		movl	$10, %ebx
 2365      00
 2366              	.LVL112:
 2367              	.LBE34:
 2368              	.LBE37:
 277:RGB2YCbCr.c   ****     image_out->color_space = JCS_YCbCr;
 2369              		.loc 1 277 32
 2370 19e8 48894610 		movq	%rax, 16(%rsi)
 280:RGB2YCbCr.c   **** 
 2371              		.loc 1 280 5 is_stmt 1
 280:RGB2YCbCr.c   **** 
 2372              		.loc 1 280 15 is_stmt 0
 2373 19ec 31C0     		xorl	%eax, %eax
 2374 19ee E8000000 		call	get_wall_time
 2374      00
 2375              	.LVL113:
 2376 19f3 418D45FF 		leal	-1(%r13), %eax
 2377 19f7 C4411857 		vxorps	%xmm12, %xmm12, %xmm12
 2377      E4
 2378 19fc C57D6F35 		vmovdqa	.LC34(%rip), %ymm14
 2378      00000000 
 2379 1a04 89855CFF 		movl	%eax, -164(%rbp)
 2379      FFFF
 2380 1a0a 4489E8   		movl	%r13d, %eax
 2381 1a0d C1E805   		shrl	$5, %eax
 2382 1a10 C5FB1185 		vmovsd	%xmm0, -176(%rbp)
 2382      50FFFFFF 
 2383              	.LVL114:
 282:RGB2YCbCr.c   ****     {
 2384              		.loc 1 282 5 is_stmt 1
 2385              	.LBB38:
 282:RGB2YCbCr.c   ****     {
 2386              		.loc 1 282 10
 282:RGB2YCbCr.c   ****     {
 2387              		.loc 1 282 22
 2388 1a18 4C8D0C40 		leaq	(%rax,%rax,2), %r9
 2389 1a1c 488B8568 		movq	-152(%rbp), %rax
 2389      FFFFFF
 2390 1a23 49C1E105 		salq	$5, %r9
 2391 1a27 4D8D2401 		leaq	(%r9,%rax), %r12
 2392 1a2b 4489E8   		movl	%r13d, %eax
 2393 1a2e 83E0E0   		andl	$-32, %eax
 2394 1a31 898558FF 		movl	%eax, -168(%rbp)
 2394      FFFF
 2395              	.LVL115:
 2396 1a37 660F1F84 		.p2align 4,,10
 2396      00000000 
 2396      00
 2397              		.p2align 3
 2398              	.L55:
 2399              	.LBB35:
 2400              		.loc 1 285 25
 2401              		.loc 1 285 9 is_stmt 0
 2402 1a40 4585ED   		testl	%r13d, %r13d
 2403 1a43 0F8E5B07 		jle	.L62
 2403      0000
 2404 1a49 83BD5CFF 		cmpl	$30, -164(%rbp)
 2404      FFFF1E
 2405 1a50 0F86A707 		jbe	.L63
 2405      0000
 2406 1a56 488B9560 		movq	-160(%rbp), %rdx
 2406      FFFFFF
 2407 1a5d 488B8568 		movq	-152(%rbp), %rax
 2407      FFFFFF
 2408              	.LVL116:
 2409              		.p2align 4,,10
 2410 1a64 0F1F4000 		.p2align 3
 2411              	.L57:
 286:RGB2YCbCr.c   ****         {
 287:RGB2YCbCr.c   ****             /* R */
 288:RGB2YCbCr.c   ****             pixels_out[3*i + 0] = (unsigned char) (
 2412              		.loc 1 288 13 is_stmt 1 discriminator 3
 289:RGB2YCbCr.c   ****                 RGB2YCbCr_offset[0] +
 290:RGB2YCbCr.c   ****                 RGB2YCbCr[0][0]*pixels_in[3*i + 0] + 
 2413              		.loc 1 290 42 is_stmt 0 discriminator 3
 2414 1a68 C5FE6F00 		vmovdqu	(%rax), %ymm0
 289:RGB2YCbCr.c   ****                 RGB2YCbCr_offset[0] +
 2415              		.loc 1 289 37 discriminator 3
 2416 1a6c C4410057 		vxorps	%xmm15, %xmm15, %xmm15
 2416      FF
 2417 1a71 4883C060 		addq	$96, %rax
 2418 1a75 4883C260 		addq	$96, %rdx
 2419              		.loc 1 290 42 discriminator 3
 2420 1a79 C5FE6F58 		vmovdqu	-32(%rax), %ymm3
 2420      E0
 2421 1a7e C5FE6F50 		vmovdqu	-64(%rax), %ymm2
 2421      C0
 2422 1a83 C4E27D00 		vpshufb	.LC13(%rip), %ymm0, %ymm1
 2422      0D000000 
 2422      00
 2423 1a8c C4E26D00 		vpshufb	.LC15(%rip), %ymm2, %ymm5
 2423      2D000000 
 2423      00
 2424 1a95 C4E3FD00 		vpermq	$78, %ymm1, %ymm4
 2424      E14E
 2425 1a9b C4E27D00 		vpshufb	.LC14(%rip), %ymm0, %ymm1
 2425      0D000000 
 2425      00
 2426 1aa4 C4E26D00 		vpshufb	.LC21(%rip), %ymm2, %ymm6
 2426      35000000 
 2426      00
 2427 1aad C5F5EBCC 		vpor	%ymm4, %ymm1, %ymm1
 2428 1ab1 C4E26500 		vpshufb	.LC16(%rip), %ymm3, %ymm4
 2428      25000000 
 2428      00
 2429 1aba C4E26D00 		vpshufb	.LC27(%rip), %ymm2, %ymm2
 2429      15000000 
 2429      00
 2430 1ac3 C5F5EBCD 		vpor	%ymm5, %ymm1, %ymm1
 2431 1ac7 C4E3FD00 		vpermq	$78, %ymm4, %ymm5
 2431      EC4E
 2432 1acd C4E26500 		vpshufb	.LC18(%rip), %ymm3, %ymm4
 2432      25000000 
 2432      00
 2433 1ad6 C4E27500 		vpshufb	.LC17(%rip), %ymm1, %ymm1
 2433      0D000000 
 2433      00
 2434 1adf C5DDEBE5 		vpor	%ymm5, %ymm4, %ymm4
 2435 1ae3 C5F5EBCC 		vpor	%ymm4, %ymm1, %ymm1
 2436 1ae7 C4E27D00 		vpshufb	.LC19(%rip), %ymm0, %ymm4
 2436      25000000 
 2436      00
 2437 1af0 C4E3FD00 		vpermq	$78, %ymm4, %ymm5
 2437      EC4E
 2438 1af6 C4E27D00 		vpshufb	.LC20(%rip), %ymm0, %ymm4
 2438      25000000 
 2438      00
 2439 1aff C5DDEBE5 		vpor	%ymm5, %ymm4, %ymm4
 2440 1b03 C4E26500 		vpshufb	.LC22(%rip), %ymm3, %ymm5
 2440      2D000000 
 2440      00
 2441 1b0c C5DDEBE6 		vpor	%ymm6, %ymm4, %ymm4
 2442 1b10 C4E3FD00 		vpermq	$78, %ymm5, %ymm6
 2442      F54E
 2443 1b16 C4E26500 		vpshufb	.LC24(%rip), %ymm3, %ymm5
 2443      2D000000 
 2443      00
 2444 1b1f C4E25D00 		vpshufb	.LC23(%rip), %ymm4, %ymm4
 2444      25000000 
 2444      00
 2445 1b28 C5D5EBEE 		vpor	%ymm6, %ymm5, %ymm5
 2446 1b2c C5DDEBE5 		vpor	%ymm5, %ymm4, %ymm4
 2447 1b30 C4E27D00 		vpshufb	.LC25(%rip), %ymm0, %ymm5
 2447      2D000000 
 2447      00
 2448 1b39 C4E27D00 		vpshufb	.LC26(%rip), %ymm0, %ymm0
 2448      05000000 
 2448      00
 2449 1b42 C4E3FD00 		vpermq	$78, %ymm5, %ymm5
 2449      ED4E
 2450 1b48 C5FDEBC5 		vpor	%ymm5, %ymm0, %ymm0
 2451 1b4c C5FDEBC2 		vpor	%ymm2, %ymm0, %ymm0
 2452 1b50 C4E26500 		vpshufb	.LC28(%rip), %ymm3, %ymm2
 2452      15000000 
 2452      00
 2453 1b59 C4E27D00 		vpshufb	.LC23(%rip), %ymm0, %ymm0
 2453      05000000 
 2453      00
 2454 1b62 C4E3FD00 		vpermq	$78, %ymm2, %ymm5
 2454      EA4E
 2455 1b68 C4E26500 		vpshufb	.LC29(%rip), %ymm3, %ymm2
 2455      15000000 
 2455      00
 2456 1b71 C5EDEBD5 		vpor	%ymm5, %ymm2, %ymm2
 2457 1b75 C4E27D30 		vpmovzxbw	%xmm1, %ymm3
 2457      D9
 2458 1b7a C4E37D39 		vextracti128	$0x1, %ymm1, %xmm1
 2458      C901
 2459 1b80 C5FDEBD2 		vpor	%ymm2, %ymm0, %ymm2
 2460 1b84 C4E27D33 		vpmovzxwd	%xmm3, %ymm0
 2460      C3
 2461 1b89 C4E37D39 		vextracti128	$0x1, %ymm3, %xmm3
 2461      DB01
 2462 1b8f C4E27D30 		vpmovzxbw	%xmm1, %ymm1
 2462      C9
 2463 1b94 C4E27D33 		vpmovzxwd	%xmm3, %ymm3
 2463      DB
 2464              		.loc 1 290 32 discriminator 3
 2465 1b99 C5FC5BC0 		vcvtdq2ps	%ymm0, %ymm0
 291:RGB2YCbCr.c   ****                 RGB2YCbCr[0][1]*pixels_in[3*i + 1] + 
 292:RGB2YCbCr.c   ****                 RGB2YCbCr[0][2]*pixels_in[3*i + 2]);
 2466              		.loc 1 292 42 discriminator 3
 2467 1b9d C4E27D30 		vpmovzxbw	%xmm2, %ymm6
 2467      F2
 290:RGB2YCbCr.c   ****                 RGB2YCbCr[0][1]*pixels_in[3*i + 1] + 
 2468              		.loc 1 290 32 discriminator 3
 2469 1ba2 C5FC5BEB 		vcvtdq2ps	%ymm3, %ymm5
 290:RGB2YCbCr.c   ****                 RGB2YCbCr[0][1]*pixels_in[3*i + 1] + 
 2470              		.loc 1 290 42 discriminator 3
 2471 1ba6 C4E27D33 		vpmovzxwd	%xmm1, %ymm3
 2471      D9
 2472 1bab C4E37D39 		vextracti128	$0x1, %ymm1, %xmm1
 2472      C901
 2473              		.loc 1 292 42 discriminator 3
 2474 1bb1 C4627D33 		vpmovzxwd	%xmm6, %ymm10
 2474      D6
 290:RGB2YCbCr.c   ****                 RGB2YCbCr[0][1]*pixels_in[3*i + 1] + 
 2475              		.loc 1 290 42 discriminator 3
 2476 1bb6 C4E27D33 		vpmovzxwd	%xmm1, %ymm1
 2476      C9
 290:RGB2YCbCr.c   ****                 RGB2YCbCr[0][1]*pixels_in[3*i + 1] + 
 2477              		.loc 1 290 32 discriminator 3
 2478 1bbb C57C5BEB 		vcvtdq2ps	%ymm3, %ymm13
 2479              		.loc 1 292 32 discriminator 3
 2480 1bbf C4417C5B 		vcvtdq2ps	%ymm10, %ymm10
 2480      D2
 290:RGB2YCbCr.c   ****                 RGB2YCbCr[0][1]*pixels_in[3*i + 1] + 
 2481              		.loc 1 290 32 discriminator 3
 2482 1bc4 C5FC296D 		vmovaps	%ymm5, -112(%rbp)
 2482      90
 2483 1bc9 C5FC5BF9 		vcvtdq2ps	%ymm1, %ymm7
 2484 1bcd C5FC590D 		vmulps	.LC30(%rip), %ymm0, %ymm1
 2484      00000000 
 2485 1bd5 C5FC297D 		vmovaps	%ymm7, -80(%rbp)
 2485      B0
 291:RGB2YCbCr.c   ****                 RGB2YCbCr[0][1]*pixels_in[3*i + 1] + 
 2486              		.loc 1 291 42 discriminator 3
 2487 1bda C4E27D30 		vpmovzxbw	%xmm4, %ymm7
 2487      FC
 2488 1bdf C4627D33 		vpmovzxwd	%xmm7, %ymm11
 2488      DF
 2489 1be4 C4E37D39 		vextracti128	$0x1, %ymm7, %xmm7
 2489      FF01
 2490              		.loc 1 292 42 discriminator 3
 2491 1bea C4E37D39 		vextracti128	$0x1, %ymm6, %xmm6
 2491      F601
 290:RGB2YCbCr.c   ****                 RGB2YCbCr[0][1]*pixels_in[3*i + 1] + 
 2492              		.loc 1 290 32 discriminator 3
 2493 1bf0 C57C29AD 		vmovaps	%ymm13, -144(%rbp)
 2493      70FFFFFF 
 291:RGB2YCbCr.c   ****                 RGB2YCbCr[0][1]*pixels_in[3*i + 1] + 
 2494              		.loc 1 291 32 discriminator 3
 2495 1bf8 C4417C5B 		vcvtdq2ps	%ymm11, %ymm11
 2495      DB
 291:RGB2YCbCr.c   ****                 RGB2YCbCr[0][1]*pixels_in[3*i + 1] + 
 2496              		.loc 1 291 42 discriminator 3
 2497 1bfd C4E27D33 		vpmovzxwd	%xmm7, %ymm7
 2497      FF
 2498              		.loc 1 292 42 discriminator 3
 2499 1c02 C4E27D33 		vpmovzxwd	%xmm6, %ymm6
 2499      F6
 291:RGB2YCbCr.c   ****                 RGB2YCbCr[0][1]*pixels_in[3*i + 1] + 
 2500              		.loc 1 291 42 discriminator 3
 2501 1c07 C4E37D39 		vextracti128	$0x1, %ymm4, %xmm4
 2501      E401
 291:RGB2YCbCr.c   ****                 RGB2YCbCr[0][1]*pixels_in[3*i + 1] + 
 2502              		.loc 1 291 32 discriminator 3
 2503 1c0d C5A4591D 		vmulps	.LC31(%rip), %ymm11, %ymm3
 2503      00000000 
 2504 1c15 C5FC5BFF 		vcvtdq2ps	%ymm7, %ymm7
 2505              		.loc 1 292 32 discriminator 3
 2506 1c19 C5FC5BF6 		vcvtdq2ps	%ymm6, %ymm6
 291:RGB2YCbCr.c   ****                 RGB2YCbCr[0][1]*pixels_in[3*i + 1] + 
 2507              		.loc 1 291 42 discriminator 3
 2508 1c1d C4E27D30 		vpmovzxbw	%xmm4, %ymm4
 2508      E4
 2509 1c22 C4627D33 		vpmovzxwd	%xmm4, %ymm9
 2509      CC
 2510              		.loc 1 292 42 discriminator 3
 2511 1c27 C4E37D39 		vextracti128	$0x1, %ymm2, %xmm2
 2511      D201
 291:RGB2YCbCr.c   ****                 RGB2YCbCr[0][1]*pixels_in[3*i + 1] + 
 2512              		.loc 1 291 42 discriminator 3
 2513 1c2d C4E37D39 		vextracti128	$0x1, %ymm4, %xmm4
 2513      E401
 289:RGB2YCbCr.c   ****                 RGB2YCbCr_offset[0] +
 2514              		.loc 1 289 37 discriminator 3
 2515 1c33 C4C17458 		vaddps	%ymm15, %ymm1, %ymm1
 2515      CF
 291:RGB2YCbCr.c   ****                 RGB2YCbCr[0][1]*pixels_in[3*i + 1] + 
 2516              		.loc 1 291 32 discriminator 3
 2517 1c38 C4417C5B 		vcvtdq2ps	%ymm9, %ymm9
 2517      C9
 2518              		.loc 1 292 42 discriminator 3
 2519 1c3d C4E27D30 		vpmovzxbw	%xmm2, %ymm2
 2519      D2
 291:RGB2YCbCr.c   ****                 RGB2YCbCr[0][1]*pixels_in[3*i + 1] + 
 2520              		.loc 1 291 42 discriminator 3
 2521 1c42 C4E27D33 		vpmovzxwd	%xmm4, %ymm4
 2521      E4
 2522              		.loc 1 292 42 discriminator 3
 2523 1c47 C4627D33 		vpmovzxwd	%xmm2, %ymm8
 2523      C2
 291:RGB2YCbCr.c   ****                 RGB2YCbCr[0][1]*pixels_in[3*i + 1] + 
 2524              		.loc 1 291 32 discriminator 3
 2525 1c4c C5FC5BE4 		vcvtdq2ps	%ymm4, %ymm4
 2526              		.loc 1 292 42 discriminator 3
 2527 1c50 C4E37D39 		vextracti128	$0x1, %ymm2, %xmm2
 2527      D201
 2528              		.loc 1 292 32 discriminator 3
 2529 1c56 C4417C5B 		vcvtdq2ps	%ymm8, %ymm8
 2529      C0
 2530              		.loc 1 292 42 discriminator 3
 2531 1c5b C4E27D33 		vpmovzxwd	%xmm2, %ymm2
 2531      D2
 290:RGB2YCbCr.c   ****                 RGB2YCbCr[0][1]*pixels_in[3*i + 1] + 
 2532              		.loc 1 290 52 discriminator 3
 2533 1c60 C5F458CB 		vaddps	%ymm3, %ymm1, %ymm1
 2534              		.loc 1 292 32 discriminator 3
 2535 1c64 C5AC591D 		vmulps	.LC32(%rip), %ymm10, %ymm3
 2535      00000000 
 2536 1c6c C5FC5BD2 		vcvtdq2ps	%ymm2, %ymm2
 291:RGB2YCbCr.c   ****                 RGB2YCbCr[0][1]*pixels_in[3*i + 1] + 
 2537              		.loc 1 291 52 discriminator 3
 2538 1c70 C5F458CB 		vaddps	%ymm3, %ymm1, %ymm1
 290:RGB2YCbCr.c   ****                 RGB2YCbCr[0][1]*pixels_in[3*i + 1] + 
 2539              		.loc 1 290 32 discriminator 3
 2540 1c74 C5D4591D 		vmulps	.LC30(%rip), %ymm5, %ymm3
 2540      00000000 
 288:RGB2YCbCr.c   ****                 RGB2YCbCr_offset[0] +
 2541              		.loc 1 288 35 discriminator 3
 2542 1c7c C5FE5BC9 		vcvttps2dq	%ymm1, %ymm1
 289:RGB2YCbCr.c   ****                 RGB2YCbCr[0][0]*pixels_in[3*i + 0] + 
 2543              		.loc 1 289 37 discriminator 3
 2544 1c80 C4C16458 		vaddps	%ymm15, %ymm3, %ymm5
 2544      EF
 291:RGB2YCbCr.c   ****                 RGB2YCbCr[0][2]*pixels_in[3*i + 2]);
 2545              		.loc 1 291 32 discriminator 3
 2546 1c85 C5C4591D 		vmulps	.LC31(%rip), %ymm7, %ymm3
 2546      00000000 
 290:RGB2YCbCr.c   ****                 RGB2YCbCr[0][1]*pixels_in[3*i + 1] + 
 2547              		.loc 1 290 52 discriminator 3
 2548 1c8d C5D458DB 		vaddps	%ymm3, %ymm5, %ymm3
 2549              		.loc 1 292 32 discriminator 3
 2550 1c91 C5CC592D 		vmulps	.LC32(%rip), %ymm6, %ymm5
 2550      00000000 
 291:RGB2YCbCr.c   ****                 RGB2YCbCr[0][2]*pixels_in[3*i + 2]);
 2551              		.loc 1 291 52 discriminator 3
 2552 1c99 C5E458ED 		vaddps	%ymm5, %ymm3, %ymm5
 288:RGB2YCbCr.c   ****                 RGB2YCbCr_offset[0] +
 2553              		.loc 1 288 35 discriminator 3
 2554 1c9d C58DDBD9 		vpand	%ymm1, %ymm14, %ymm3
 290:RGB2YCbCr.c   ****                 RGB2YCbCr[0][1]*pixels_in[3*i + 1] + 
 2555              		.loc 1 290 32 discriminator 3
 2556 1ca1 C594590D 		vmulps	.LC30(%rip), %ymm13, %ymm1
 2556      00000000 
 288:RGB2YCbCr.c   ****                 RGB2YCbCr_offset[0] +
 2557              		.loc 1 288 35 discriminator 3
 2558 1ca9 C5FE5BED 		vcvttps2dq	%ymm5, %ymm5
 2559 1cad C58DDBED 		vpand	%ymm5, %ymm14, %ymm5
 2560 1cb1 C4E2652B 		vpackusdw	%ymm5, %ymm3, %ymm3
 2560      DD
 2561 1cb6 C4E3FD00 		vpermq	$216, %ymm3, %ymm3
 2561      DBD8
 289:RGB2YCbCr.c   ****                 RGB2YCbCr[0][0]*pixels_in[3*i + 0] + 
 2562              		.loc 1 289 37 discriminator 3
 2563 1cbc C4C17458 		vaddps	%ymm15, %ymm1, %ymm5
 2563      EF
 291:RGB2YCbCr.c   ****                 RGB2YCbCr[0][2]*pixels_in[3*i + 2]);
 2564              		.loc 1 291 32 discriminator 3
 2565 1cc1 C5B4590D 		vmulps	.LC31(%rip), %ymm9, %ymm1
 2565      00000000 
 290:RGB2YCbCr.c   ****                 RGB2YCbCr[0][1]*pixels_in[3*i + 1] + 
 2566              		.loc 1 290 52 discriminator 3
 2567 1cc9 C5D458C9 		vaddps	%ymm1, %ymm5, %ymm1
 2568              		.loc 1 292 32 discriminator 3
 2569 1ccd C5BC592D 		vmulps	.LC32(%rip), %ymm8, %ymm5
 2569      00000000 
 291:RGB2YCbCr.c   ****                 RGB2YCbCr[0][2]*pixels_in[3*i + 2]);
 2570              		.loc 1 291 52 discriminator 3
 2571 1cd5 C5F458CD 		vaddps	%ymm5, %ymm1, %ymm1
 290:RGB2YCbCr.c   ****                 RGB2YCbCr[0][1]*pixels_in[3*i + 1] + 
 2572              		.loc 1 290 32 discriminator 3
 2573 1cd9 C5FC286D 		vmovaps	-80(%rbp), %ymm5
 2573      B0
 2574 1cde C5D4592D 		vmulps	.LC30(%rip), %ymm5, %ymm5
 2574      00000000 
 288:RGB2YCbCr.c   ****                 RGB2YCbCr_offset[0] +
 2575              		.loc 1 288 35 discriminator 3
 2576 1ce6 C5FE5BC9 		vcvttps2dq	%ymm1, %ymm1
 2577 1cea C58DDBC9 		vpand	%ymm1, %ymm14, %ymm1
 289:RGB2YCbCr.c   ****                 RGB2YCbCr[0][0]*pixels_in[3*i + 0] + 
 2578              		.loc 1 289 37 discriminator 3
 2579 1cee C4415458 		vaddps	%ymm15, %ymm5, %ymm13
 2579      EF
 291:RGB2YCbCr.c   ****                 RGB2YCbCr[0][2]*pixels_in[3*i + 2]);
 2580              		.loc 1 291 32 discriminator 3
 2581 1cf3 C5DC592D 		vmulps	.LC31(%rip), %ymm4, %ymm5
 2581      00000000 
 293:RGB2YCbCr.c   ****             /* G */
 294:RGB2YCbCr.c   ****             pixels_out[3*i + 1] = (unsigned char) (
 295:RGB2YCbCr.c   ****                 RGB2YCbCr_offset[1] +
 296:RGB2YCbCr.c   ****                 RGB2YCbCr[1][0]*pixels_in[3*i + 0] + 
 2582              		.loc 1 296 32 discriminator 3
 2583 1cfb C57C287D 		vmovaps	-80(%rbp), %ymm15
 2583      B0
 290:RGB2YCbCr.c   ****                 RGB2YCbCr[0][1]*pixels_in[3*i + 1] + 
 2584              		.loc 1 290 52 discriminator 3
 2585 1d00 C59458ED 		vaddps	%ymm5, %ymm13, %ymm5
 292:RGB2YCbCr.c   ****             /* G */
 2586              		.loc 1 292 32 discriminator 3
 2587 1d04 C56C592D 		vmulps	.LC32(%rip), %ymm2, %ymm13
 2587      00000000 
 291:RGB2YCbCr.c   ****                 RGB2YCbCr[0][2]*pixels_in[3*i + 2]);
 2588              		.loc 1 291 52 discriminator 3
 2589 1d0c C4C15458 		vaddps	%ymm13, %ymm5, %ymm5
 2589      ED
 288:RGB2YCbCr.c   ****                 RGB2YCbCr_offset[0] +
 2590              		.loc 1 288 35 discriminator 3
 2591 1d11 C5FE5BED 		vcvttps2dq	%ymm5, %ymm5
 2592 1d15 C58DDBED 		vpand	%ymm5, %ymm14, %ymm5
 2593 1d19 C4E2752B 		vpackusdw	%ymm5, %ymm1, %ymm5
 2593      ED
 2594 1d1e C5E5DB0D 		vpand	.LC35(%rip), %ymm3, %ymm1
 2594      00000000 
 2595 1d26 C4E3FD00 		vpermq	$216, %ymm5, %ymm5
 2595      EDD8
 2596 1d2c C5D5DB2D 		vpand	.LC35(%rip), %ymm5, %ymm5
 2596      00000000 
 2597 1d34 C5F567CD 		vpackuswb	%ymm5, %ymm1, %ymm1
 2598              		.loc 1 296 32 discriminator 3
 2599 1d38 C5FC592D 		vmulps	.LC36(%rip), %ymm0, %ymm5
 2599      00000000 
 288:RGB2YCbCr.c   ****                 RGB2YCbCr_offset[0] +
 2600              		.loc 1 288 35 discriminator 3
 2601 1d40 C4E3FD00 		vpermq	$216, %ymm1, %ymm1
 2601      C9D8
 294:RGB2YCbCr.c   ****                 RGB2YCbCr_offset[1] +
 2602              		.loc 1 294 13 is_stmt 1 discriminator 3
 295:RGB2YCbCr.c   ****                 RGB2YCbCr[1][0]*pixels_in[3*i + 0] + 
 2603              		.loc 1 295 37 is_stmt 0 discriminator 3
 2604 1d46 C5D4581D 		vaddps	.LC67(%rip), %ymm5, %ymm3
 2604      00000000 
 297:RGB2YCbCr.c   ****                 RGB2YCbCr[1][1]*pixels_in[3*i + 1] + 
 2605              		.loc 1 297 32 discriminator 3
 2606 1d4e C5A4592D 		vmulps	.LC37(%rip), %ymm11, %ymm5
 2606      00000000 
 298:RGB2YCbCr.c   ****                 RGB2YCbCr[1][2]*pixels_in[3*i + 2]);
 299:RGB2YCbCr.c   ****             /* B */
 300:RGB2YCbCr.c   ****             pixels_out[3*i + 2] =  (unsigned char) (
 301:RGB2YCbCr.c   ****                 RGB2YCbCr_offset[2] +
 302:RGB2YCbCr.c   ****                 RGB2YCbCr[2][0]*pixels_in[3*i + 0] + 
 303:RGB2YCbCr.c   ****                 RGB2YCbCr[2][1]*pixels_in[3*i + 1] + 
 2607              		.loc 1 303 32 discriminator 3
 2608 1d56 C524591D 		vmulps	.LC40(%rip), %ymm11, %ymm11
 2608      00000000 
 302:RGB2YCbCr.c   ****                 RGB2YCbCr[2][1]*pixels_in[3*i + 1] + 
 2609              		.loc 1 302 32 discriminator 3
 2610 1d5e C5FC5905 		vmulps	.LC38(%rip), %ymm0, %ymm0
 2610      00000000 
 301:RGB2YCbCr.c   ****                 RGB2YCbCr[2][0]*pixels_in[3*i + 0] + 
 2611              		.loc 1 301 37 discriminator 3
 2612 1d66 C5FC5805 		vaddps	.LC67(%rip), %ymm0, %ymm0
 2612      00000000 
 296:RGB2YCbCr.c   ****                 RGB2YCbCr[1][1]*pixels_in[3*i + 1] + 
 2613              		.loc 1 296 52 discriminator 3
 2614 1d6e C5E458ED 		vaddps	%ymm5, %ymm3, %ymm5
 298:RGB2YCbCr.c   ****             /* B */
 2615              		.loc 1 298 32 discriminator 3
 2616 1d72 C5AC591D 		vmulps	.LC38(%rip), %ymm10, %ymm3
 2616      00000000 
 304:RGB2YCbCr.c   ****                 RGB2YCbCr[2][2]*pixels_in[3*i + 2]);
 2617              		.loc 1 304 32 discriminator 3
 2618 1d7a C52C5915 		vmulps	.LC41(%rip), %ymm10, %ymm10
 2618      00000000 
 302:RGB2YCbCr.c   ****                 RGB2YCbCr[2][1]*pixels_in[3*i + 1] + 
 2619              		.loc 1 302 52 discriminator 3
 2620 1d82 C4417C58 		vaddps	%ymm11, %ymm0, %ymm11
 2620      DB
 297:RGB2YCbCr.c   ****                 RGB2YCbCr[1][2]*pixels_in[3*i + 2]);
 2621              		.loc 1 297 52 discriminator 3
 2622 1d87 C5D458EB 		vaddps	%ymm3, %ymm5, %ymm5
 296:RGB2YCbCr.c   ****                 RGB2YCbCr[1][1]*pixels_in[3*i + 1] + 
 2623              		.loc 1 296 32 discriminator 3
 2624 1d8b C5FC285D 		vmovaps	-112(%rbp), %ymm3
 2624      90
 2625 1d90 C5E4591D 		vmulps	.LC36(%rip), %ymm3, %ymm3
 2625      00000000 
 295:RGB2YCbCr.c   ****                 RGB2YCbCr[1][0]*pixels_in[3*i + 0] + 
 2626              		.loc 1 295 37 discriminator 3
 2627 1d98 C564582D 		vaddps	.LC67(%rip), %ymm3, %ymm13
 2627      00000000 
 297:RGB2YCbCr.c   ****                 RGB2YCbCr[1][2]*pixels_in[3*i + 2]);
 2628              		.loc 1 297 32 discriminator 3
 2629 1da0 C5C4591D 		vmulps	.LC37(%rip), %ymm7, %ymm3
 2629      00000000 
 303:RGB2YCbCr.c   ****                 RGB2YCbCr[2][2]*pixels_in[3*i + 2]);
 2630              		.loc 1 303 52 discriminator 3
 2631 1da8 C4412458 		vaddps	%ymm10, %ymm11, %ymm10
 2631      D2
 294:RGB2YCbCr.c   ****                 RGB2YCbCr_offset[1] +
 2632              		.loc 1 294 35 discriminator 3
 2633 1dad C5FE5BED 		vcvttps2dq	%ymm5, %ymm5
 2634 1db1 C58DDBED 		vpand	%ymm5, %ymm14, %ymm5
 300:RGB2YCbCr.c   ****                 RGB2YCbCr_offset[2] +
 2635              		.loc 1 300 36 discriminator 3
 2636 1db5 C4417E5B 		vcvttps2dq	%ymm10, %ymm10
 2636      D2
 296:RGB2YCbCr.c   ****                 RGB2YCbCr[1][1]*pixels_in[3*i + 1] + 
 2637              		.loc 1 296 52 discriminator 3
 2638 1dba C59458DB 		vaddps	%ymm3, %ymm13, %ymm3
 298:RGB2YCbCr.c   ****             /* B */
 2639              		.loc 1 298 32 discriminator 3
 2640 1dbe C54C592D 		vmulps	.LC38(%rip), %ymm6, %ymm13
 2640      00000000 
 297:RGB2YCbCr.c   ****                 RGB2YCbCr[1][2]*pixels_in[3*i + 2]);
 2641              		.loc 1 297 52 discriminator 3
 2642 1dc6 C4416458 		vaddps	%ymm13, %ymm3, %ymm13
 2642      ED
 294:RGB2YCbCr.c   ****                 RGB2YCbCr_offset[1] +
 2643              		.loc 1 294 35 discriminator 3
 2644 1dcb C4417E5B 		vcvttps2dq	%ymm13, %ymm13
 2644      ED
 2645 1dd0 C4410DDB 		vpand	%ymm13, %ymm14, %ymm13
 2645      ED
 2646 1dd5 C4C2552B 		vpackusdw	%ymm13, %ymm5, %ymm5
 2646      ED
 296:RGB2YCbCr.c   ****                 RGB2YCbCr[1][1]*pixels_in[3*i + 1] + 
 2647              		.loc 1 296 32 discriminator 3
 2648 1dda C57C28AD 		vmovaps	-144(%rbp), %ymm13
 2648      70FFFFFF 
 294:RGB2YCbCr.c   ****                 RGB2YCbCr_offset[1] +
 2649              		.loc 1 294 35 discriminator 3
 2650 1de2 C4E3FD00 		vpermq	$216, %ymm5, %ymm3
 2650      DDD8
 2651 1de8 C5E5DB1D 		vpand	.LC35(%rip), %ymm3, %ymm3
 2651      00000000 
 296:RGB2YCbCr.c   ****                 RGB2YCbCr[1][1]*pixels_in[3*i + 1] + 
 2652              		.loc 1 296 32 discriminator 3
 2653 1df0 C594592D 		vmulps	.LC36(%rip), %ymm13, %ymm5
 2653      00000000 
 295:RGB2YCbCr.c   ****                 RGB2YCbCr[1][0]*pixels_in[3*i + 0] + 
 2654              		.loc 1 295 37 discriminator 3
 2655 1df8 C554582D 		vaddps	.LC67(%rip), %ymm5, %ymm13
 2655      00000000 
 297:RGB2YCbCr.c   ****                 RGB2YCbCr[1][2]*pixels_in[3*i + 2]);
 2656              		.loc 1 297 32 discriminator 3
 2657 1e00 C5B4592D 		vmulps	.LC37(%rip), %ymm9, %ymm5
 2657      00000000 
 296:RGB2YCbCr.c   ****                 RGB2YCbCr[1][1]*pixels_in[3*i + 1] + 
 2658              		.loc 1 296 52 discriminator 3
 2659 1e08 C59458ED 		vaddps	%ymm5, %ymm13, %ymm5
 298:RGB2YCbCr.c   ****             /* B */
 2660              		.loc 1 298 32 discriminator 3
 2661 1e0c C53C592D 		vmulps	.LC38(%rip), %ymm8, %ymm13
 2661      00000000 
 297:RGB2YCbCr.c   ****                 RGB2YCbCr[1][2]*pixels_in[3*i + 2]);
 2662              		.loc 1 297 52 discriminator 3
 2663 1e14 C4C15458 		vaddps	%ymm13, %ymm5, %ymm5
 2663      ED
 296:RGB2YCbCr.c   ****                 RGB2YCbCr[1][1]*pixels_in[3*i + 1] + 
 2664              		.loc 1 296 32 discriminator 3
 2665 1e19 C504592D 		vmulps	.LC36(%rip), %ymm15, %ymm13
 2665      00000000 
 295:RGB2YCbCr.c   ****                 RGB2YCbCr[1][0]*pixels_in[3*i + 0] + 
 2666              		.loc 1 295 37 discriminator 3
 2667 1e21 C514583D 		vaddps	.LC67(%rip), %ymm13, %ymm15
 2667      00000000 
 297:RGB2YCbCr.c   ****                 RGB2YCbCr[1][2]*pixels_in[3*i + 2]);
 2668              		.loc 1 297 32 discriminator 3
 2669 1e29 C55C592D 		vmulps	.LC37(%rip), %ymm4, %ymm13
 2669      00000000 
 294:RGB2YCbCr.c   ****                 RGB2YCbCr_offset[1] +
 2670              		.loc 1 294 35 discriminator 3
 2671 1e31 C5FE5BED 		vcvttps2dq	%ymm5, %ymm5
 2672 1e35 C58DDBED 		vpand	%ymm5, %ymm14, %ymm5
 296:RGB2YCbCr.c   ****                 RGB2YCbCr[1][1]*pixels_in[3*i + 1] + 
 2673              		.loc 1 296 52 discriminator 3
 2674 1e39 C4410458 		vaddps	%ymm13, %ymm15, %ymm13
 2674      ED
 298:RGB2YCbCr.c   ****             /* B */
 2675              		.loc 1 298 32 discriminator 3
 2676 1e3e C56C593D 		vmulps	.LC38(%rip), %ymm2, %ymm15
 2676      00000000 
 297:RGB2YCbCr.c   ****                 RGB2YCbCr[1][2]*pixels_in[3*i + 2]);
 2677              		.loc 1 297 52 discriminator 3
 2678 1e46 C4411458 		vaddps	%ymm15, %ymm13, %ymm13
 2678      EF
 294:RGB2YCbCr.c   ****                 RGB2YCbCr_offset[1] +
 2679              		.loc 1 294 35 discriminator 3
 2680 1e4b C4417E5B 		vcvttps2dq	%ymm13, %ymm13
 2680      ED
 2681 1e50 C4410DDB 		vpand	%ymm13, %ymm14, %ymm13
 2681      ED
 2682 1e55 C4C2552B 		vpackusdw	%ymm13, %ymm5, %ymm5
 2682      ED
 2683 1e5a C4E3FD00 		vpermq	$216, %ymm5, %ymm5
 2683      EDD8
 2684 1e60 C5D5DB2D 		vpand	.LC35(%rip), %ymm5, %ymm5
 2684      00000000 
 2685 1e68 C5E567DD 		vpackuswb	%ymm5, %ymm3, %ymm3
 302:RGB2YCbCr.c   ****                 RGB2YCbCr[2][1]*pixels_in[3*i + 1] + 
 2686              		.loc 1 302 32 discriminator 3
 2687 1e6c C5FC286D 		vmovaps	-112(%rbp), %ymm5
 2687      90
 2688 1e71 C57C287D 		vmovaps	-80(%rbp), %ymm15
 2688      B0
 303:RGB2YCbCr.c   ****                 RGB2YCbCr[2][2]*pixels_in[3*i + 2]);
 2689              		.loc 1 303 32 discriminator 3
 2690 1e76 C534590D 		vmulps	.LC40(%rip), %ymm9, %ymm9
 2690      00000000 
 302:RGB2YCbCr.c   ****                 RGB2YCbCr[2][1]*pixels_in[3*i + 1] + 
 2691              		.loc 1 302 32 discriminator 3
 2692 1e7e C57C28AD 		vmovaps	-144(%rbp), %ymm13
 2692      70FFFFFF 
 294:RGB2YCbCr.c   ****                 RGB2YCbCr_offset[1] +
 2693              		.loc 1 294 35 discriminator 3
 2694 1e86 C4E3FD00 		vpermq	$216, %ymm3, %ymm3
 2694      DBD8
 300:RGB2YCbCr.c   ****                 RGB2YCbCr_offset[2] +
 2695              		.loc 1 300 13 is_stmt 1 discriminator 3
 302:RGB2YCbCr.c   ****                 RGB2YCbCr[2][1]*pixels_in[3*i + 1] + 
 2696              		.loc 1 302 32 is_stmt 0 discriminator 3
 2697 1e8c C5D45905 		vmulps	.LC38(%rip), %ymm5, %ymm0
 2697      00000000 
 2698 1e94 C594592D 		vmulps	.LC38(%rip), %ymm13, %ymm5
 2698      00000000 
 301:RGB2YCbCr.c   ****                 RGB2YCbCr[2][0]*pixels_in[3*i + 0] + 
 2699              		.loc 1 301 37 discriminator 3
 2700 1e9c C5FC5805 		vaddps	.LC67(%rip), %ymm0, %ymm0
 2700      00000000 
 2701 1ea4 C5D4582D 		vaddps	.LC67(%rip), %ymm5, %ymm5
 2701      00000000 
 303:RGB2YCbCr.c   ****                 RGB2YCbCr[2][2]*pixels_in[3*i + 2]);
 2702              		.loc 1 303 32 discriminator 3
 2703 1eac C5C4593D 		vmulps	.LC40(%rip), %ymm7, %ymm7
 2703      00000000 
 2704 1eb4 C5DC5925 		vmulps	.LC40(%rip), %ymm4, %ymm4
 2704      00000000 
 2705              		.loc 1 304 32 discriminator 3
 2706 1ebc C5EC5915 		vmulps	.LC41(%rip), %ymm2, %ymm2
 2706      00000000 
 302:RGB2YCbCr.c   ****                 RGB2YCbCr[2][1]*pixels_in[3*i + 1] + 
 2707              		.loc 1 302 52 discriminator 3
 2708 1ec4 C4415458 		vaddps	%ymm9, %ymm5, %ymm9
 2708      C9
 302:RGB2YCbCr.c   ****                 RGB2YCbCr[2][1]*pixels_in[3*i + 1] + 
 2709              		.loc 1 302 32 discriminator 3
 2710 1ec9 C584592D 		vmulps	.LC38(%rip), %ymm15, %ymm5
 2710      00000000 
 301:RGB2YCbCr.c   ****                 RGB2YCbCr[2][0]*pixels_in[3*i + 0] + 
 2711              		.loc 1 301 37 discriminator 3
 2712 1ed1 C5D4582D 		vaddps	.LC67(%rip), %ymm5, %ymm5
 2712      00000000 
 2713              		.loc 1 304 32 discriminator 3
 2714 1ed9 C5CC5935 		vmulps	.LC41(%rip), %ymm6, %ymm6
 2714      00000000 
 2715 1ee1 C53C5905 		vmulps	.LC41(%rip), %ymm8, %ymm8
 2715      00000000 
 302:RGB2YCbCr.c   ****                 RGB2YCbCr[2][1]*pixels_in[3*i + 1] + 
 2716              		.loc 1 302 52 discriminator 3
 2717 1ee9 C5FC58FF 		vaddps	%ymm7, %ymm0, %ymm7
 300:RGB2YCbCr.c   ****                 RGB2YCbCr_offset[2] +
 2718              		.loc 1 300 36 discriminator 3
 2719 1eed C4C10DDB 		vpand	%ymm10, %ymm14, %ymm0
 2719      C2
 302:RGB2YCbCr.c   ****                 RGB2YCbCr[2][1]*pixels_in[3*i + 1] + 
 2720              		.loc 1 302 52 discriminator 3
 2721 1ef2 C5D458E4 		vaddps	%ymm4, %ymm5, %ymm4
 303:RGB2YCbCr.c   ****                 RGB2YCbCr[2][2]*pixels_in[3*i + 2]);
 2722              		.loc 1 303 52 discriminator 3
 2723 1ef6 C5C458F6 		vaddps	%ymm6, %ymm7, %ymm6
 300:RGB2YCbCr.c   ****                 RGB2YCbCr_offset[2] +
 2724              		.loc 1 300 33 discriminator 3
 2725 1efa C5FD6F3D 		vmovdqa	.LC53(%rip), %ymm7
 2725      00000000 
 303:RGB2YCbCr.c   ****                 RGB2YCbCr[2][2]*pixels_in[3*i + 2]);
 2726              		.loc 1 303 52 discriminator 3
 2727 1f02 C5DC58E2 		vaddps	%ymm2, %ymm4, %ymm4
 2728 1f06 C4413458 		vaddps	%ymm8, %ymm9, %ymm8
 2728      C0
 300:RGB2YCbCr.c   ****                 RGB2YCbCr_offset[2] +
 2729              		.loc 1 300 36 discriminator 3
 2730 1f0b C5FE5BF6 		vcvttps2dq	%ymm6, %ymm6
 2731 1f0f C58DDBF6 		vpand	%ymm6, %ymm14, %ymm6
 2732 1f13 C4417E5B 		vcvttps2dq	%ymm8, %ymm8
 2732      C0
 2733 1f18 C5FE5BE4 		vcvttps2dq	%ymm4, %ymm4
 2734 1f1c C4C10DDB 		vpand	%ymm8, %ymm14, %ymm2
 2734      D0
 2735 1f21 C58DDBE4 		vpand	%ymm4, %ymm14, %ymm4
 2736 1f25 C4E27D2B 		vpackusdw	%ymm6, %ymm0, %ymm0
 2736      C6
 2737 1f2a C4E26D2B 		vpackusdw	%ymm4, %ymm2, %ymm2
 2737      D4
 300:RGB2YCbCr.c   ****                 RGB2YCbCr_offset[2] +
 2738              		.loc 1 300 33 discriminator 3
 2739 1f2f C4E26500 		vpshufb	.LC43(%rip), %ymm3, %ymm4
 2739      25000000 
 2739      00
 300:RGB2YCbCr.c   ****                 RGB2YCbCr_offset[2] +
 2740              		.loc 1 300 36 discriminator 3
 2741 1f38 C4E3FD00 		vpermq	$216, %ymm0, %ymm0
 2741      C0D8
 2742 1f3e C4E3FD00 		vpermq	$216, %ymm2, %ymm2
 2742      D2D8
 2743 1f44 C5FDDB05 		vpand	.LC35(%rip), %ymm0, %ymm0
 2743      00000000 
 2744 1f4c C5EDDB15 		vpand	.LC35(%rip), %ymm2, %ymm2
 2744      00000000 
 300:RGB2YCbCr.c   ****                 RGB2YCbCr_offset[2] +
 2745              		.loc 1 300 33 discriminator 3
 2746 1f54 C4E3FD00 		vpermq	$78, %ymm4, %ymm5
 2746      EC4E
 2747 1f5a C4E26500 		vpshufb	.LC45(%rip), %ymm3, %ymm4
 2747      25000000 
 2747      00
 2748 1f63 C5DDEBE5 		vpor	%ymm5, %ymm4, %ymm4
 300:RGB2YCbCr.c   ****                 RGB2YCbCr_offset[2] +
 2749              		.loc 1 300 36 discriminator 3
 2750 1f67 C5FD67D2 		vpackuswb	%ymm2, %ymm0, %ymm2
 300:RGB2YCbCr.c   ****                 RGB2YCbCr_offset[2] +
 2751              		.loc 1 300 33 discriminator 3
 2752 1f6b C4E27500 		vpshufb	.LC42(%rip), %ymm1, %ymm0
 2752      05000000 
 2752      00
 2753 1f74 C4E3FD00 		vpermq	$78, %ymm0, %ymm6
 2753      F04E
 300:RGB2YCbCr.c   ****                 RGB2YCbCr_offset[2] +
 2754              		.loc 1 300 36 discriminator 3
 2755 1f7a C4E3FD00 		vpermq	$216, %ymm2, %ymm2
 2755      D2D8
 300:RGB2YCbCr.c   ****                 RGB2YCbCr_offset[2] +
 2756              		.loc 1 300 33 discriminator 3
 2757 1f80 C4E27500 		vpshufb	.LC44(%rip), %ymm1, %ymm0
 2757      05000000 
 2757      00
 2758 1f89 C5FDEBC6 		vpor	%ymm6, %ymm0, %ymm0
 2759 1f8d C5FDEBC4 		vpor	%ymm4, %ymm0, %ymm0
 2760 1f91 C4E26D00 		vpshufb	.LC46(%rip), %ymm2, %ymm4
 2760      25000000 
 2760      00
 2761 1f9a C4E27D00 		vpshufb	.LC47(%rip), %ymm0, %ymm0
 2761      05000000 
 2761      00
 2762 1fa3 C4E3FD00 		vpermq	$78, %ymm4, %ymm5
 2762      EC4E
 2763 1fa9 C4E26D00 		vpshufb	.LC48(%rip), %ymm2, %ymm4
 2763      25000000 
 2763      00
 2764 1fb2 C5DDEBE5 		vpor	%ymm5, %ymm4, %ymm4
 2765 1fb6 C4E26500 		vpshufb	.LC51(%rip), %ymm3, %ymm5
 2765      2D000000 
 2765      00
 2766 1fbf C5FDEBC4 		vpor	%ymm4, %ymm0, %ymm0
 2767 1fc3 C5FE7F42 		vmovdqu	%ymm0, -96(%rdx)
 2767      A0
 2768 1fc8 C4E27500 		vpshufb	.LC49(%rip), %ymm1, %ymm0
 2768      05000000 
 2768      00
 2769 1fd1 C4E3FD00 		vpermq	$78, %ymm0, %ymm4
 2769      E04E
 2770 1fd7 C4E27500 		vpshufb	.LC50(%rip), %ymm1, %ymm0
 2770      05000000 
 2770      00
 2771 1fe0 C5FDEBC4 		vpor	%ymm4, %ymm0, %ymm0
 2772 1fe4 C4E26D00 		vpshufb	.LC52(%rip), %ymm2, %ymm4
 2772      25000000 
 2772      00
 2773 1fed C5FDEBC5 		vpor	%ymm5, %ymm0, %ymm0
 2774 1ff1 C4E37D4C 		vpblendvb	%ymm7, %ymm4, %ymm0, %ymm0
 2774      C470
 2775 1ff7 C5FE7F42 		vmovdqu	%ymm0, -64(%rdx)
 2775      C0
 2776 1ffc C4E27500 		vpshufb	.LC54(%rip), %ymm1, %ymm0
 2776      05000000 
 2776      00
 2777 2005 C4E26500 		vpshufb	.LC55(%rip), %ymm3, %ymm5
 2777      2D000000 
 2777      00
 2778 200e C4E26500 		vpshufb	.LC57(%rip), %ymm3, %ymm3
 2778      1D000000 
 2778      00
 2779 2017 C4E3FD00 		vpermq	$78, %ymm0, %ymm4
 2779      E04E
 2780 201d C4E3FD00 		vpermq	$78, %ymm5, %ymm5
 2780      ED4E
 2781 2023 C4E27500 		vpshufb	.LC56(%rip), %ymm1, %ymm0
 2781      05000000 
 2781      00
 2782 202c C5FDEBC4 		vpor	%ymm4, %ymm0, %ymm0
 2783 2030 C5E5EBDD 		vpor	%ymm5, %ymm3, %ymm3
 2784 2034 C4E26D00 		vpshufb	.LC58(%rip), %ymm2, %ymm1
 2784      0D000000 
 2784      00
 2785 203d C5FDEBC3 		vpor	%ymm3, %ymm0, %ymm0
 2786 2041 C4E3FD00 		vpermq	$78, %ymm1, %ymm1
 2786      C94E
 2787 2047 C4E26D00 		vpshufb	.LC60(%rip), %ymm2, %ymm2
 2787      15000000 
 2787      00
 2788 2050 C4E27D00 		vpshufb	.LC59(%rip), %ymm0, %ymm0
 2788      05000000 
 2788      00
 2789 2059 C5EDEBD1 		vpor	%ymm1, %ymm2, %ymm2
 2790 205d C5FDEBC2 		vpor	%ymm2, %ymm0, %ymm0
 2791 2061 C5FE7F42 		vmovdqu	%ymm0, -32(%rdx)
 2791      E0
 285:RGB2YCbCr.c   ****         {
 2792              		.loc 1 285 43 is_stmt 1 discriminator 3
 285:RGB2YCbCr.c   ****         {
 2793              		.loc 1 285 25 discriminator 3
 2794 2066 4C39E0   		cmpq	%r12, %rax
 2795 2069 0F85F9F9 		jne	.L57
 2795      FFFF
 2796 206f 8B8558FF 		movl	-168(%rbp), %eax
 2796      FFFF
 2797 2075 4139C5   		cmpl	%eax, %r13d
 2798 2078 0F842601 		je	.L62
 2798      0000
 285:RGB2YCbCr.c   ****         {
 2799              		.loc 1 285 18 is_stmt 0
 2800 207e 89C6     		movl	%eax, %esi
 2801              	.L56:
 2802 2080 488B8568 		movq	-152(%rbp), %rax
 2802      FFFFFF
 2803 2087 8D1476   		leal	(%rsi,%rsi,2), %edx
 2804 208a C57A102D 		vmovss	.LC1(%rip), %xmm13
 2804      00000000 
 2805 2092 C4412057 		vxorps	%xmm11, %xmm11, %xmm11
 2805      DB
 2806 2097 4863D2   		movslq	%edx, %rdx
 2807 209a C57A1015 		vmovss	.LC3(%rip), %xmm10
 2807      00000000 
 2808 20a2 C57A100D 		vmovss	.LC4(%rip), %xmm9
 2808      00000000 
 2809 20aa C57A1005 		vmovss	.LC5(%rip), %xmm8
 2809      00000000 
 2810 20b2 C5FA1025 		vmovss	.LC6(%rip), %xmm4
 2810      00000000 
 2811 20ba 4801D0   		addq	%rdx, %rax
 2812 20bd C5FA103D 		vmovss	.LC7(%rip), %xmm7
 2812      00000000 
 2813 20c5 C5FA101D 		vmovss	.LC8(%rip), %xmm3
 2813      00000000 
 2814 20cd C5FA1035 		vmovss	.LC9(%rip), %xmm6
 2814      00000000 
 2815 20d5 C5FA102D 		vmovss	.LC10(%rip), %xmm5
 2815      00000000 
 2816 20dd 48039560 		addq	-160(%rbp), %rdx
 2816      FFFFFF
 2817              		.p2align 4,,10
 2818 20e4 0F1F4000 		.p2align 3
 2819              	.L59:
 2820              	.LVL117:
 288:RGB2YCbCr.c   ****                 RGB2YCbCr_offset[0] +
 2821              		.loc 1 288 13 is_stmt 1
 290:RGB2YCbCr.c   ****                 RGB2YCbCr[0][1]*pixels_in[3*i + 1] + 
 2822              		.loc 1 290 42 is_stmt 0
 2823 20e8 0FB608   		movzbl	(%rax), %ecx
 285:RGB2YCbCr.c   ****         {
 2824              		.loc 1 285 44
 2825 20eb FFC6     		incl	%esi
 2826              	.LVL118:
 2827 20ed 4883C003 		addq	$3, %rax
 2828 20f1 4883C203 		addq	$3, %rdx
 290:RGB2YCbCr.c   ****                 RGB2YCbCr[0][1]*pixels_in[3*i + 1] + 
 2829              		.loc 1 290 32
 2830 20f5 C59A2AC9 		vcvtsi2ssl	%ecx, %xmm12, %xmm1
 291:RGB2YCbCr.c   ****                 RGB2YCbCr[0][2]*pixels_in[3*i + 2]);
 2831              		.loc 1 291 42
 2832 20f9 0FB648FE 		movzbl	-2(%rax), %ecx
 291:RGB2YCbCr.c   ****                 RGB2YCbCr[0][2]*pixels_in[3*i + 2]);
 2833              		.loc 1 291 32
 2834 20fd C59A2AC1 		vcvtsi2ssl	%ecx, %xmm12, %xmm0
 292:RGB2YCbCr.c   ****             /* G */
 2835              		.loc 1 292 42
 2836 2101 0FB648FF 		movzbl	-1(%rax), %ecx
 290:RGB2YCbCr.c   ****                 RGB2YCbCr[0][1]*pixels_in[3*i + 1] + 
 2837              		.loc 1 290 32
 2838 2105 C4C17259 		vmulss	%xmm13, %xmm1, %xmm1
 2838      CD
 291:RGB2YCbCr.c   ****                 RGB2YCbCr[0][2]*pixels_in[3*i + 2]);
 2839              		.loc 1 291 32
 2840 210a C4C17A59 		vmulss	%xmm10, %xmm0, %xmm0
 2840      C2
 289:RGB2YCbCr.c   ****                 RGB2YCbCr[0][0]*pixels_in[3*i + 0] + 
 2841              		.loc 1 289 37
 2842 210f C4C17258 		vaddss	%xmm11, %xmm1, %xmm2
 2842      D3
 290:RGB2YCbCr.c   ****                 RGB2YCbCr[0][1]*pixels_in[3*i + 1] + 
 2843              		.loc 1 290 52
 2844 2114 C5EA58C8 		vaddss	%xmm0, %xmm2, %xmm1
 292:RGB2YCbCr.c   ****             /* G */
 2845              		.loc 1 292 32
 2846 2118 C59A2AC1 		vcvtsi2ssl	%ecx, %xmm12, %xmm0
 2847 211c C4C17A59 		vmulss	%xmm9, %xmm0, %xmm0
 2847      C1
 291:RGB2YCbCr.c   ****                 RGB2YCbCr[0][2]*pixels_in[3*i + 2]);
 2848              		.loc 1 291 52
 2849 2121 C5F258C0 		vaddss	%xmm0, %xmm1, %xmm0
 288:RGB2YCbCr.c   ****                 RGB2YCbCr_offset[0] +
 2850              		.loc 1 288 35
 2851 2125 C5FA2CC8 		vcvttss2sil	%xmm0, %ecx
 2852 2129 884AFD   		movb	%cl, -3(%rdx)
 294:RGB2YCbCr.c   ****                 RGB2YCbCr_offset[1] +
 2853              		.loc 1 294 13 is_stmt 1
 296:RGB2YCbCr.c   ****                 RGB2YCbCr[1][1]*pixels_in[3*i + 1] + 
 2854              		.loc 1 296 42 is_stmt 0
 2855 212c 0FB648FD 		movzbl	-3(%rax), %ecx
 296:RGB2YCbCr.c   ****                 RGB2YCbCr[1][1]*pixels_in[3*i + 1] + 
 2856              		.loc 1 296 32
 2857 2130 C59A2AC9 		vcvtsi2ssl	%ecx, %xmm12, %xmm1
 297:RGB2YCbCr.c   ****                 RGB2YCbCr[1][2]*pixels_in[3*i + 2]);
 2858              		.loc 1 297 42
 2859 2134 0FB648FE 		movzbl	-2(%rax), %ecx
 297:RGB2YCbCr.c   ****                 RGB2YCbCr[1][2]*pixels_in[3*i + 2]);
 2860              		.loc 1 297 32
 2861 2138 C59A2AC1 		vcvtsi2ssl	%ecx, %xmm12, %xmm0
 298:RGB2YCbCr.c   ****             /* B */
 2862              		.loc 1 298 42
 2863 213c 0FB648FF 		movzbl	-1(%rax), %ecx
 296:RGB2YCbCr.c   ****                 RGB2YCbCr[1][1]*pixels_in[3*i + 1] + 
 2864              		.loc 1 296 32
 2865 2140 C4C17259 		vmulss	%xmm8, %xmm1, %xmm1
 2865      C8
 297:RGB2YCbCr.c   ****                 RGB2YCbCr[1][2]*pixels_in[3*i + 2]);
 2866              		.loc 1 297 32
 2867 2145 C5FA59C7 		vmulss	%xmm7, %xmm0, %xmm0
 295:RGB2YCbCr.c   ****                 RGB2YCbCr[1][0]*pixels_in[3*i + 0] + 
 2868              		.loc 1 295 37
 2869 2149 C5F258D4 		vaddss	%xmm4, %xmm1, %xmm2
 296:RGB2YCbCr.c   ****                 RGB2YCbCr[1][1]*pixels_in[3*i + 1] + 
 2870              		.loc 1 296 52
 2871 214d C5EA58C8 		vaddss	%xmm0, %xmm2, %xmm1
 298:RGB2YCbCr.c   ****             /* B */
 2872              		.loc 1 298 32
 2873 2151 C59A2AC1 		vcvtsi2ssl	%ecx, %xmm12, %xmm0
 2874 2155 C5FA59C3 		vmulss	%xmm3, %xmm0, %xmm0
 297:RGB2YCbCr.c   ****                 RGB2YCbCr[1][2]*pixels_in[3*i + 2]);
 2875              		.loc 1 297 52
 2876 2159 C5F258C0 		vaddss	%xmm0, %xmm1, %xmm0
 294:RGB2YCbCr.c   ****                 RGB2YCbCr_offset[1] +
 2877              		.loc 1 294 35
 2878 215d C5FA2CC8 		vcvttss2sil	%xmm0, %ecx
 2879 2161 884AFE   		movb	%cl, -2(%rdx)
 300:RGB2YCbCr.c   ****                 RGB2YCbCr_offset[2] +
 2880              		.loc 1 300 13 is_stmt 1
 302:RGB2YCbCr.c   ****                 RGB2YCbCr[2][1]*pixels_in[3*i + 1] + 
 2881              		.loc 1 302 42 is_stmt 0
 2882 2164 0FB648FD 		movzbl	-3(%rax), %ecx
 302:RGB2YCbCr.c   ****                 RGB2YCbCr[2][1]*pixels_in[3*i + 1] + 
 2883              		.loc 1 302 32
 2884 2168 C59A2AC9 		vcvtsi2ssl	%ecx, %xmm12, %xmm1
 303:RGB2YCbCr.c   ****                 RGB2YCbCr[2][2]*pixels_in[3*i + 2]);
 2885              		.loc 1 303 42
 2886 216c 0FB648FE 		movzbl	-2(%rax), %ecx
 303:RGB2YCbCr.c   ****                 RGB2YCbCr[2][2]*pixels_in[3*i + 2]);
 2887              		.loc 1 303 32
 2888 2170 C59A2AC1 		vcvtsi2ssl	%ecx, %xmm12, %xmm0
 2889              		.loc 1 304 42
 2890 2174 0FB648FF 		movzbl	-1(%rax), %ecx
 302:RGB2YCbCr.c   ****                 RGB2YCbCr[2][1]*pixels_in[3*i + 1] + 
 2891              		.loc 1 302 32
 2892 2178 C5F259CB 		vmulss	%xmm3, %xmm1, %xmm1
 303:RGB2YCbCr.c   ****                 RGB2YCbCr[2][2]*pixels_in[3*i + 2]);
 2893              		.loc 1 303 32
 2894 217c C5FA59C6 		vmulss	%xmm6, %xmm0, %xmm0
 301:RGB2YCbCr.c   ****                 RGB2YCbCr[2][0]*pixels_in[3*i + 0] + 
 2895              		.loc 1 301 37
 2896 2180 C5F258D4 		vaddss	%xmm4, %xmm1, %xmm2
 302:RGB2YCbCr.c   ****                 RGB2YCbCr[2][1]*pixels_in[3*i + 1] + 
 2897              		.loc 1 302 52
 2898 2184 C5EA58C8 		vaddss	%xmm0, %xmm2, %xmm1
 2899              		.loc 1 304 32
 2900 2188 C59A2AC1 		vcvtsi2ssl	%ecx, %xmm12, %xmm0
 2901 218c C5FA59C5 		vmulss	%xmm5, %xmm0, %xmm0
 303:RGB2YCbCr.c   ****                 RGB2YCbCr[2][2]*pixels_in[3*i + 2]);
 2902              		.loc 1 303 52
 2903 2190 C5F258C0 		vaddss	%xmm0, %xmm1, %xmm0
 300:RGB2YCbCr.c   ****                 RGB2YCbCr_offset[2] +
 2904              		.loc 1 300 36
 2905 2194 C5FA2CC8 		vcvttss2sil	%xmm0, %ecx
 2906 2198 884AFF   		movb	%cl, -1(%rdx)
 285:RGB2YCbCr.c   ****         {
 2907              		.loc 1 285 43 is_stmt 1
 2908              	.LVL119:
 285:RGB2YCbCr.c   ****         {
 2909              		.loc 1 285 25
 285:RGB2YCbCr.c   ****         {
 2910              		.loc 1 285 9 is_stmt 0
 2911 219b 4139F5   		cmpl	%esi, %r13d
 2912 219e 0F8F44FF 		jg	.L59
 2912      FFFF
 2913              	.LVL120:
 2914              	.L62:
 2915              	.LBE35:
 305:RGB2YCbCr.c   ****         }
 306:RGB2YCbCr.c   ****         dummy(image_in, image_out);
 2916              		.loc 1 306 9 is_stmt 1
 2917 21a4 4C89F6   		movq	%r14, %rsi
 2918 21a7 4C89FF   		movq	%r15, %rdi
 2919 21aa C5F877   		vzeroupper
 2920 21ad E8000000 		call	dummy
 2920      00
 2921              	.LVL121:
 282:RGB2YCbCr.c   ****     {
 2922              		.loc 1 282 34
 282:RGB2YCbCr.c   ****     {
 2923              		.loc 1 282 22
 282:RGB2YCbCr.c   ****     {
 2924              		.loc 1 282 5 is_stmt 0
 2925 21b2 FFCB     		decl	%ebx
 2926 21b4 C4411857 		vxorps	%xmm12, %xmm12, %xmm12
 2926      E4
 2927 21b9 C57D6F35 		vmovdqa	.LC34(%rip), %ymm14
 2927      00000000 
 2928 21c1 0F8579F8 		jne	.L55
 2928      FFFF
 2929              	.LBE38:
 307:RGB2YCbCr.c   ****     }
 308:RGB2YCbCr.c   ****     end_t = get_wall_time();
 2930              		.loc 1 308 5 is_stmt 1
 2931              		.loc 1 308 13 is_stmt 0
 2932 21c7 31C0     		xorl	%eax, %eax
 2933 21c9 C5F877   		vzeroupper
 2934 21cc E8000000 		call	get_wall_time
 2934      00
 2935              	.LVL122:
 309:RGB2YCbCr.c   ****     results(end_t - start_t, height*width, "RGB2Gray_cast2");
 2936              		.loc 1 309 5 is_stmt 1
 2937 21d1 4489EF   		movl	%r13d, %edi
 2938 21d4 C5FB5C85 		vsubsd	-176(%rbp), %xmm0, %xmm0
 2938      50FFFFFF 
 2939              	.LVL123:
 310:RGB2YCbCr.c   **** }
 2940              		.loc 1 310 1 is_stmt 0
 2941 21dc 4881C488 		addq	$136, %rsp
 2941      000000
 309:RGB2YCbCr.c   ****     results(end_t - start_t, height*width, "RGB2Gray_cast2");
 2942              		.loc 1 309 5
 2943 21e3 BE000000 		movl	$.LC68, %esi
 2943      00
 2944              		.loc 1 310 1
 2945 21e8 5B       		popq	%rbx
 2946 21e9 415C     		popq	%r12
 2947 21eb 415D     		popq	%r13
 2948              		.cfi_remember_state
 2949              		.cfi_def_cfa 13, 0
 2950 21ed 415E     		popq	%r14
 2951              	.LVL124:
 2952 21ef 415F     		popq	%r15
 2953              	.LVL125:
 2954 21f1 5D       		popq	%rbp
 2955              	.LVL126:
 2956 21f2 498D65F0 		leaq	-16(%r13), %rsp
 2957              		.cfi_def_cfa 7, 16
 2958              	.LVL127:
 2959 21f6 415D     		popq	%r13
 2960              		.cfi_def_cfa_offset 8
 309:RGB2YCbCr.c   ****     results(end_t - start_t, height*width, "RGB2Gray_cast2");
 2961              		.loc 1 309 5
 2962 21f8 E9000000 		jmp	results
 2962      00
 2963              	.LVL128:
 2964              	.L63:
 2965              		.cfi_restore_state
 2966              	.LBB39:
 2967              	.LBB36:
 285:RGB2YCbCr.c   ****         {
 2968              		.loc 1 285 18
 2969 21fd 31F6     		xorl	%esi, %esi
 2970 21ff E97CFEFF 		jmp	.L56
 2970      FF
 2971              	.LVL129:
 2972              	.L67:
 2973              	.LBE36:
 2974              	.LBE39:
 270:RGB2YCbCr.c   ****         exit(-1);
 2975              		.loc 1 270 9 is_stmt 1
 2976 2204 BF000000 		movl	$.LC0, %edi
 2976      00
 2977              	.LVL130:
 2978 2209 E8000000 		call	puts
 2978      00
 2979              	.LVL131:
 271:RGB2YCbCr.c   ****     }
 2980              		.loc 1 271 9
 2981 220e 83CFFF   		orl	$-1, %edi
 2982 2211 E8000000 		call	exit
 2982      00
 2983              	.LVL132:
 2984              		.cfi_endproc
 2985              	.LFE18:
 2987              		.section	.rodata.str1.1
 2988              	.LC69:
 2989 0051 52474232 		.string	"RGB2Gray_cast_esc"
 2989      47726179 
 2989      5F636173 
 2989      745F6573 
 2989      6300
 2990              		.text
 2991 2216 662E0F1F 		.p2align 4
 2991      84000000 
 2991      0000
 2992              		.globl	RGB2YCbCr_cast_esc
 2994              	RGB2YCbCr_cast_esc:
 2995              	.LFB19:
 311:RGB2YCbCr.c   **** //----------------------------------------------------------------------------
 312:RGB2YCbCr.c   **** 
 313:RGB2YCbCr.c   **** /* cambios respecto RGB2YCbCr_cast1(): atributo para no vectorizar */
 314:RGB2YCbCr.c   **** __attribute__((optimize("no-tree-vectorize")))
 315:RGB2YCbCr.c   **** void
 316:RGB2YCbCr.c   **** RGB2YCbCr_cast_esc(image_t * restrict image_in, image_t * restrict image_out)
 317:RGB2YCbCr.c   **** {
 2996              		.loc 1 317 1
 2997              		.cfi_startproc
 2998              	.LVL133:
 318:RGB2YCbCr.c   ****     double start_t, end_t;
 2999              		.loc 1 318 5
 319:RGB2YCbCr.c   ****     const int height = image_in->height;
 3000              		.loc 1 319 5
 317:RGB2YCbCr.c   ****     double start_t, end_t;
 3001              		.loc 1 317 1 is_stmt 0
 3002 2220 4157     		pushq	%r15
 3003              		.cfi_def_cfa_offset 16
 3004              		.cfi_offset 15, -16
 3005 2222 4156     		pushq	%r14
 3006              		.cfi_def_cfa_offset 24
 3007              		.cfi_offset 14, -24
 3008 2224 4155     		pushq	%r13
 3009              		.cfi_def_cfa_offset 32
 3010              		.cfi_offset 13, -32
 3011 2226 4154     		pushq	%r12
 3012              		.cfi_def_cfa_offset 40
 3013              		.cfi_offset 12, -40
 3014 2228 55       		pushq	%rbp
 3015              		.cfi_def_cfa_offset 48
 3016              		.cfi_offset 6, -48
 3017 2229 53       		pushq	%rbx
 3018              		.cfi_def_cfa_offset 56
 3019              		.cfi_offset 3, -56
 3020 222a 4883EC18 		subq	$24, %rsp
 3021              		.cfi_def_cfa_offset 80
 320:RGB2YCbCr.c   ****     const int width =  image_in->width;
 321:RGB2YCbCr.c   ****     unsigned char * restrict pixels_in  = image_in->pixels;
 322:RGB2YCbCr.c   ****     unsigned char * restrict pixels_out = image_out->pixels;
 3022              		.loc 1 322 30
 3023 222e 488B06   		movq	(%rsi), %rax
 323:RGB2YCbCr.c   **** 
 324:RGB2YCbCr.c   ****     if (image_in->bytes_per_pixel != 3)
 3024              		.loc 1 324 8
 3025 2231 837F1003 		cmpl	$3, 16(%rdi)
 319:RGB2YCbCr.c   ****     const int width =  image_in->width;
 3026              		.loc 1 319 15
 3027 2235 448B6F0C 		movl	12(%rdi), %r13d
 3028              	.LVL134:
 320:RGB2YCbCr.c   ****     const int width =  image_in->width;
 3029              		.loc 1 320 5 is_stmt 1
 320:RGB2YCbCr.c   ****     const int width =  image_in->width;
 3030              		.loc 1 320 15 is_stmt 0
 3031 2239 8B5F08   		movl	8(%rdi), %ebx
 3032              	.LVL135:
 321:RGB2YCbCr.c   ****     unsigned char * restrict pixels_out = image_out->pixels;
 3033              		.loc 1 321 5 is_stmt 1
 322:RGB2YCbCr.c   **** 
 3034              		.loc 1 322 30 is_stmt 0
 3035 223c 48890424 		movq	%rax, (%rsp)
 321:RGB2YCbCr.c   ****     unsigned char * restrict pixels_out = image_out->pixels;
 3036              		.loc 1 321 30
 3037 2240 4C8B37   		movq	(%rdi), %r14
 3038              	.LVL136:
 322:RGB2YCbCr.c   **** 
 3039              		.loc 1 322 5 is_stmt 1
 3040              		.loc 1 324 5
 3041              		.loc 1 324 8 is_stmt 0
 3042 2243 0F85A801 		jne	.L77
 3042      0000
 325:RGB2YCbCr.c   ****     {
 326:RGB2YCbCr.c   ****         printf("ERROR: input image has to be RGB\n");
 327:RGB2YCbCr.c   ****         exit(-1);
 328:RGB2YCbCr.c   ****     }
 329:RGB2YCbCr.c   ****     
 330:RGB2YCbCr.c   ****     /* fill struct fields */
 331:RGB2YCbCr.c   ****     image_out->width  = width;
 332:RGB2YCbCr.c   ****     image_out->height = height;
 333:RGB2YCbCr.c   ****     image_out->bytes_per_pixel = 3;
 3043              		.loc 1 333 32
 3044 2249 48B80300 		movabsq	$12884901891, %rax
 3044      00000300 
 3044      0000
 3045              	.LVL137:
 331:RGB2YCbCr.c   ****     image_out->height = height;
 3046              		.loc 1 331 23
 3047 2253 895E08   		movl	%ebx, 8(%rsi)
 3048 2256 4989FC   		movq	%rdi, %r12
 3049 2259 4889F5   		movq	%rsi, %rbp
 331:RGB2YCbCr.c   ****     image_out->height = height;
 3050              		.loc 1 331 5 is_stmt 1
 332:RGB2YCbCr.c   ****     image_out->bytes_per_pixel = 3;
 3051              		.loc 1 332 5
 332:RGB2YCbCr.c   ****     image_out->bytes_per_pixel = 3;
 3052              		.loc 1 332 23 is_stmt 0
 3053 225c 44896E0C 		movl	%r13d, 12(%rsi)
 3054              		.loc 1 333 5 is_stmt 1
 334:RGB2YCbCr.c   ****     image_out->color_space = JCS_YCbCr;
 3055              		.loc 1 334 5
 3056              	.LBB40:
 3057              	.LBB41:
 335:RGB2YCbCr.c   **** 
 336:RGB2YCbCr.c   ****     start_t = get_wall_time();
 337:RGB2YCbCr.c   **** 
 338:RGB2YCbCr.c   ****     for (int it = 0; it < NITER; it++)
 339:RGB2YCbCr.c   ****     {
 340:RGB2YCbCr.c   ****         for (int i = 0; i < height*width; i++)
 3058              		.loc 1 340 35 is_stmt 0
 3059 2260 440FAFEB 		imull	%ebx, %r13d
 3060              	.LVL138:
 3061 2264 BB0A0000 		movl	$10, %ebx
 3061      00
 3062              	.LVL139:
 3063              	.LBE41:
 3064              	.LBE40:
 333:RGB2YCbCr.c   ****     image_out->color_space = JCS_YCbCr;
 3065              		.loc 1 333 32
 3066 2269 48894610 		movq	%rax, 16(%rsi)
 336:RGB2YCbCr.c   **** 
 3067              		.loc 1 336 5 is_stmt 1
 336:RGB2YCbCr.c   **** 
 3068              		.loc 1 336 15 is_stmt 0
 3069 226d 31C0     		xorl	%eax, %eax
 3070 226f E8000000 		call	get_wall_time
 3070      00
 3071              	.LVL140:
 3072 2274 418D45FF 		leal	-1(%r13), %eax
 3073 2278 C5E057DB 		vxorps	%xmm3, %xmm3, %xmm3
 3074 227c C57A1025 		vmovss	.LC1(%rip), %xmm12
 3074      00000000 
 3075 2284 488D0440 		leaq	(%rax,%rax,2), %rax
 3076 2288 C5FB1144 		vmovsd	%xmm0, 8(%rsp)
 3076      2408
 3077              	.LVL141:
 338:RGB2YCbCr.c   ****     {
 3078              		.loc 1 338 5 is_stmt 1
 3079              	.LBB43:
 338:RGB2YCbCr.c   ****     {
 3080              		.loc 1 338 10
 338:RGB2YCbCr.c   ****     {
 3081              		.loc 1 338 22
 3082 228e 4D8D7C06 		leaq	3(%r14,%rax), %r15
 3082      03
 3083              	.LVL142:
 3084              		.p2align 4,,10
 3085 2293 0F1F4400 		.p2align 3
 3085      00
 3086              	.L70:
 3087              	.LBB42:
 3088              		.loc 1 340 25
 3089              		.loc 1 340 9 is_stmt 0
 3090 2298 4585ED   		testl	%r13d, %r13d
 3091 229b 0F8E0901 		jle	.L74
 3091      0000
 3092 22a1 488B3424 		movq	(%rsp), %rsi
 3093 22a5 C5FA1025 		vmovss	.LC8(%rip), %xmm4
 3093      00000000 
 3094 22ad 4C89F1   		movq	%r14, %rcx
 3095 22b0 C57A101D 		vmovss	.LC3(%rip), %xmm11
 3095      00000000 
 3096 22b8 C57A1015 		vmovss	.LC4(%rip), %xmm10
 3096      00000000 
 3097 22c0 C57A100D 		vmovss	.LC5(%rip), %xmm9
 3097      00000000 
 3098 22c8 C5FA102D 		vmovss	.LC65(%rip), %xmm5
 3098      00000000 
 3099 22d0 C57A1005 		vmovss	.LC7(%rip), %xmm8
 3099      00000000 
 3100 22d8 C5FA103D 		vmovss	.LC9(%rip), %xmm7
 3100      00000000 
 3101 22e0 C5FA1035 		vmovss	.LC10(%rip), %xmm6
 3101      00000000 
 3102              	.LVL143:
 3103 22e8 0F1F8400 		.p2align 4,,10
 3103      00000000 
 3104              		.p2align 3
 3105              	.L71:
 341:RGB2YCbCr.c   ****         {
 342:RGB2YCbCr.c   ****             /* el cast float mejora las prestaciones!! */
 343:RGB2YCbCr.c   ****             /* R */
 344:RGB2YCbCr.c   ****             pixels_out[3*i + 0] = (unsigned char) (0.5f + 
 3106              		.loc 1 344 13 is_stmt 1 discriminator 3
 345:RGB2YCbCr.c   ****                 RGB2YCbCr_offset[0] +
 346:RGB2YCbCr.c   ****                 RGB2YCbCr[0][0]*pixels_in[3*i + 0] + 
 3107              		.loc 1 346 42 is_stmt 0 discriminator 3
 3108 22f0 0FB601   		movzbl	(%rcx), %eax
 3109 22f3 4883C103 		addq	$3, %rcx
 3110 22f7 4883C603 		addq	$3, %rsi
 3111              		.loc 1 346 32 discriminator 3
 3112 22fb C5E22AC8 		vcvtsi2ssl	%eax, %xmm3, %xmm1
 347:RGB2YCbCr.c   ****                 RGB2YCbCr[0][1]*pixels_in[3*i + 1] + 
 3113              		.loc 1 347 42 discriminator 3
 3114 22ff 0FB641FE 		movzbl	-2(%rcx), %eax
 3115              		.loc 1 347 32 discriminator 3
 3116 2303 C5E22AC0 		vcvtsi2ssl	%eax, %xmm3, %xmm0
 348:RGB2YCbCr.c   ****                 RGB2YCbCr[0][2]*pixels_in[3*i + 2]);
 3117              		.loc 1 348 42 discriminator 3
 3118 2307 0FB641FF 		movzbl	-1(%rcx), %eax
 346:RGB2YCbCr.c   ****                 RGB2YCbCr[0][1]*pixels_in[3*i + 1] + 
 3119              		.loc 1 346 32 discriminator 3
 3120 230b C4C17259 		vmulss	%xmm12, %xmm1, %xmm1
 3120      CC
 347:RGB2YCbCr.c   ****                 RGB2YCbCr[0][1]*pixels_in[3*i + 1] + 
 3121              		.loc 1 347 32 discriminator 3
 3122 2310 C4C17A59 		vmulss	%xmm11, %xmm0, %xmm0
 3122      C3
 345:RGB2YCbCr.c   ****                 RGB2YCbCr[0][0]*pixels_in[3*i + 0] + 
 3123              		.loc 1 345 37 discriminator 3
 3124 2315 C5F258D4 		vaddss	%xmm4, %xmm1, %xmm2
 346:RGB2YCbCr.c   ****                 RGB2YCbCr[0][1]*pixels_in[3*i + 1] + 
 3125              		.loc 1 346 52 discriminator 3
 3126 2319 C5EA58C8 		vaddss	%xmm0, %xmm2, %xmm1
 3127              		.loc 1 348 32 discriminator 3
 3128 231d C5E22AC0 		vcvtsi2ssl	%eax, %xmm3, %xmm0
 3129 2321 C4C17A59 		vmulss	%xmm10, %xmm0, %xmm0
 3129      C2
 347:RGB2YCbCr.c   ****                 RGB2YCbCr[0][2]*pixels_in[3*i + 2]);
 3130              		.loc 1 347 52 discriminator 3
 3131 2326 C5F258C0 		vaddss	%xmm0, %xmm1, %xmm0
 344:RGB2YCbCr.c   ****                 RGB2YCbCr_offset[0] +
 3132              		.loc 1 344 35 discriminator 3
 3133 232a C5FA2CC0 		vcvttss2sil	%xmm0, %eax
 3134 232e 8846FD   		movb	%al, -3(%rsi)
 349:RGB2YCbCr.c   ****             /* G */
 350:RGB2YCbCr.c   ****             pixels_out[3*i + 1] = (unsigned char) (0.5f + 
 3135              		.loc 1 350 13 is_stmt 1 discriminator 3
 351:RGB2YCbCr.c   ****                 RGB2YCbCr_offset[1] +
 352:RGB2YCbCr.c   ****                 RGB2YCbCr[1][0]*pixels_in[3*i + 0] + 
 3136              		.loc 1 352 42 is_stmt 0 discriminator 3
 3137 2331 0FB641FD 		movzbl	-3(%rcx), %eax
 3138              		.loc 1 352 32 discriminator 3
 3139 2335 C5E22AC8 		vcvtsi2ssl	%eax, %xmm3, %xmm1
 353:RGB2YCbCr.c   ****                 RGB2YCbCr[1][1]*pixels_in[3*i + 1] + 
 3140              		.loc 1 353 42 discriminator 3
 3141 2339 0FB641FE 		movzbl	-2(%rcx), %eax
 3142              		.loc 1 353 32 discriminator 3
 3143 233d C5E22AC0 		vcvtsi2ssl	%eax, %xmm3, %xmm0
 354:RGB2YCbCr.c   ****                 RGB2YCbCr[1][2]*pixels_in[3*i + 2]);
 3144              		.loc 1 354 42 discriminator 3
 3145 2341 0FB641FF 		movzbl	-1(%rcx), %eax
 352:RGB2YCbCr.c   ****                 RGB2YCbCr[1][1]*pixels_in[3*i + 1] + 
 3146              		.loc 1 352 32 discriminator 3
 3147 2345 C4C17259 		vmulss	%xmm9, %xmm1, %xmm1
 3147      C9
 353:RGB2YCbCr.c   ****                 RGB2YCbCr[1][1]*pixels_in[3*i + 1] + 
 3148              		.loc 1 353 32 discriminator 3
 3149 234a C4C17A59 		vmulss	%xmm8, %xmm0, %xmm0
 3149      C0
 351:RGB2YCbCr.c   ****                 RGB2YCbCr[1][0]*pixels_in[3*i + 0] + 
 3150              		.loc 1 351 37 discriminator 3
 3151 234f C5F258D5 		vaddss	%xmm5, %xmm1, %xmm2
 352:RGB2YCbCr.c   ****                 RGB2YCbCr[1][1]*pixels_in[3*i + 1] + 
 3152              		.loc 1 352 52 discriminator 3
 3153 2353 C5EA58C8 		vaddss	%xmm0, %xmm2, %xmm1
 3154              		.loc 1 354 32 discriminator 3
 3155 2357 C5E22AC0 		vcvtsi2ssl	%eax, %xmm3, %xmm0
 3156 235b C5FA59C4 		vmulss	%xmm4, %xmm0, %xmm0
 353:RGB2YCbCr.c   ****                 RGB2YCbCr[1][2]*pixels_in[3*i + 2]);
 3157              		.loc 1 353 52 discriminator 3
 3158 235f C5F258C0 		vaddss	%xmm0, %xmm1, %xmm0
 350:RGB2YCbCr.c   ****                 RGB2YCbCr_offset[1] +
 3159              		.loc 1 350 35 discriminator 3
 3160 2363 C5FA2CC0 		vcvttss2sil	%xmm0, %eax
 3161 2367 8846FE   		movb	%al, -2(%rsi)
 355:RGB2YCbCr.c   ****             /* B */
 356:RGB2YCbCr.c   ****             pixels_out[3*i + 2] =  (unsigned char) (0.5f + 
 3162              		.loc 1 356 13 is_stmt 1 discriminator 3
 357:RGB2YCbCr.c   ****                 RGB2YCbCr_offset[2] +
 358:RGB2YCbCr.c   ****                 RGB2YCbCr[2][0]*pixels_in[3*i + 0] + 
 3163              		.loc 1 358 42 is_stmt 0 discriminator 3
 3164 236a 0FB641FD 		movzbl	-3(%rcx), %eax
 3165              		.loc 1 358 32 discriminator 3
 3166 236e C5E22AC8 		vcvtsi2ssl	%eax, %xmm3, %xmm1
 359:RGB2YCbCr.c   ****                 RGB2YCbCr[2][1]*pixels_in[3*i + 1] + 
 3167              		.loc 1 359 42 discriminator 3
 3168 2372 0FB641FE 		movzbl	-2(%rcx), %eax
 3169              		.loc 1 359 32 discriminator 3
 3170 2376 C5E22AC0 		vcvtsi2ssl	%eax, %xmm3, %xmm0
 360:RGB2YCbCr.c   ****                 RGB2YCbCr[2][2]*pixels_in[3*i + 2]);
 3171              		.loc 1 360 42 discriminator 3
 3172 237a 0FB641FF 		movzbl	-1(%rcx), %eax
 358:RGB2YCbCr.c   ****                 RGB2YCbCr[2][1]*pixels_in[3*i + 1] + 
 3173              		.loc 1 358 32 discriminator 3
 3174 237e C5F259CC 		vmulss	%xmm4, %xmm1, %xmm1
 359:RGB2YCbCr.c   ****                 RGB2YCbCr[2][1]*pixels_in[3*i + 1] + 
 3175              		.loc 1 359 32 discriminator 3
 3176 2382 C5FA59C7 		vmulss	%xmm7, %xmm0, %xmm0
 357:RGB2YCbCr.c   ****                 RGB2YCbCr[2][0]*pixels_in[3*i + 0] + 
 3177              		.loc 1 357 37 discriminator 3
 3178 2386 C5F258D5 		vaddss	%xmm5, %xmm1, %xmm2
 358:RGB2YCbCr.c   ****                 RGB2YCbCr[2][1]*pixels_in[3*i + 1] + 
 3179              		.loc 1 358 52 discriminator 3
 3180 238a C5EA58C8 		vaddss	%xmm0, %xmm2, %xmm1
 3181              		.loc 1 360 32 discriminator 3
 3182 238e C5E22AC0 		vcvtsi2ssl	%eax, %xmm3, %xmm0
 3183 2392 C5FA59C6 		vmulss	%xmm6, %xmm0, %xmm0
 359:RGB2YCbCr.c   ****                 RGB2YCbCr[2][2]*pixels_in[3*i + 2]);
 3184              		.loc 1 359 52 discriminator 3
 3185 2396 C5F258C0 		vaddss	%xmm0, %xmm1, %xmm0
 356:RGB2YCbCr.c   ****                 RGB2YCbCr_offset[2] +
 3186              		.loc 1 356 36 discriminator 3
 3187 239a C5FA2CC0 		vcvttss2sil	%xmm0, %eax
 3188 239e 8846FF   		movb	%al, -1(%rsi)
 340:RGB2YCbCr.c   ****         {
 3189              		.loc 1 340 43 is_stmt 1 discriminator 3
 340:RGB2YCbCr.c   ****         {
 3190              		.loc 1 340 25 discriminator 3
 340:RGB2YCbCr.c   ****         {
 3191              		.loc 1 340 9 is_stmt 0 discriminator 3
 3192 23a1 4939CF   		cmpq	%rcx, %r15
 3193 23a4 0F8546FF 		jne	.L71
 3193      FFFF
 3194              	.L74:
 3195              	.LBE42:
 361:RGB2YCbCr.c   ****         }
 362:RGB2YCbCr.c   ****         dummy(image_in, image_out);
 3196              		.loc 1 362 9 is_stmt 1
 3197 23aa 4889EE   		movq	%rbp, %rsi
 3198 23ad 4C89E7   		movq	%r12, %rdi
 3199 23b0 E8000000 		call	dummy
 3199      00
 3200              	.LVL144:
 338:RGB2YCbCr.c   ****     {
 3201              		.loc 1 338 34
 338:RGB2YCbCr.c   ****     {
 3202              		.loc 1 338 22
 338:RGB2YCbCr.c   ****     {
 3203              		.loc 1 338 5 is_stmt 0
 3204 23b5 FFCB     		decl	%ebx
 3205              	.LVL145:
 3206 23b7 C5E057DB 		vxorps	%xmm3, %xmm3, %xmm3
 3207 23bb C57A1025 		vmovss	.LC1(%rip), %xmm12
 3207      00000000 
 3208 23c3 0F85CFFE 		jne	.L70
 3208      FFFF
 3209              	.LBE43:
 363:RGB2YCbCr.c   ****     }
 364:RGB2YCbCr.c   ****     end_t = get_wall_time();
 3210              		.loc 1 364 5 is_stmt 1
 3211              		.loc 1 364 13 is_stmt 0
 3212 23c9 31C0     		xorl	%eax, %eax
 3213 23cb E8000000 		call	get_wall_time
 3213      00
 3214              	.LVL146:
 365:RGB2YCbCr.c   ****     results(end_t - start_t, height*width, "RGB2Gray_cast_esc");
 3215              		.loc 1 365 5 is_stmt 1
 3216 23d0 C5FB5C44 		vsubsd	8(%rsp), %xmm0, %xmm0
 3216      2408
 3217              	.LVL147:
 366:RGB2YCbCr.c   **** }
 3218              		.loc 1 366 1 is_stmt 0
 3219 23d6 4883C418 		addq	$24, %rsp
 3220              		.cfi_remember_state
 3221              		.cfi_def_cfa_offset 56
 3222              	.LVL148:
 365:RGB2YCbCr.c   ****     results(end_t - start_t, height*width, "RGB2Gray_cast_esc");
 3223              		.loc 1 365 5
 3224 23da 4489EF   		movl	%r13d, %edi
 3225              		.loc 1 366 1
 3226 23dd 5B       		popq	%rbx
 3227              		.cfi_def_cfa_offset 48
 3228              	.LVL149:
 365:RGB2YCbCr.c   ****     results(end_t - start_t, height*width, "RGB2Gray_cast_esc");
 3229              		.loc 1 365 5
 3230 23de BE000000 		movl	$.LC69, %esi
 3230      00
 3231              		.loc 1 366 1
 3232 23e3 5D       		popq	%rbp
 3233              		.cfi_def_cfa_offset 40
 3234              	.LVL150:
 3235 23e4 415C     		popq	%r12
 3236              		.cfi_def_cfa_offset 32
 3237              	.LVL151:
 3238 23e6 415D     		popq	%r13
 3239              		.cfi_def_cfa_offset 24
 3240 23e8 415E     		popq	%r14
 3241              		.cfi_def_cfa_offset 16
 3242              	.LVL152:
 3243 23ea 415F     		popq	%r15
 3244              		.cfi_def_cfa_offset 8
 365:RGB2YCbCr.c   ****     results(end_t - start_t, height*width, "RGB2Gray_cast_esc");
 3245              		.loc 1 365 5
 3246 23ec E9000000 		jmp	results
 3246      00
 3247              	.LVL153:
 3248              	.L77:
 3249              		.cfi_restore_state
 326:RGB2YCbCr.c   ****         exit(-1);
 3250              		.loc 1 326 9 is_stmt 1
 3251 23f1 BF000000 		movl	$.LC0, %edi
 3251      00
 3252              	.LVL154:
 3253 23f6 E8000000 		call	puts
 3253      00
 3254              	.LVL155:
 327:RGB2YCbCr.c   ****     }
 3255              		.loc 1 327 9
 3256 23fb 83CFFF   		orl	$-1, %edi
 3257 23fe E8000000 		call	exit
 3257      00
 3258              	.LVL156:
 3259              		.cfi_endproc
 3260              	.LFE19:
 3262              		.section	.rodata.str1.1
 3263              	.LC70:
 3264 0063 52474232 		.string	"RGB2YCbCrSOA0"
 3264      59436243 
 3264      72534F41 
 3264      3000
 3265              		.text
 3266 2403 0F1F0066 		.p2align 4
 3266      2E0F1F84 
 3266      00000000 
 3266      00
 3267              		.globl	RGB2YCbCr_SOA0
 3269              	RGB2YCbCr_SOA0:
 3270              	.LFB20:
 367:RGB2YCbCr.c   **** //----------------------------------------------------------------------------
 368:RGB2YCbCr.c   **** 
 369:RGB2YCbCr.c   **** //----------------------------------------------------------------------------
 370:RGB2YCbCr.c   **** 
 371:RGB2YCbCr.c   **** /* transformaci√≥n de datos de entrada y salida de formato vector de estructuras (Array of Structs,
 372:RGB2YCbCr.c   ****  * (R0 G0 B0 R1 G1 B1 ... Rn-1 Gn-1 Bn-1)
 373:RGB2YCbCr.c   ****  * a estructura de vectores (Struct of Arrays, SoA)
 374:RGB2YCbCr.c   ****  * (R0 R1 ... Rn-1 G0 G1 ... Gn-1 B0 B1 ... Bn-1) */
 375:RGB2YCbCr.c   **** void
 376:RGB2YCbCr.c   **** RGB2YCbCr_SOA0(image_t * restrict image_in, image_t * restrict image_out)
 377:RGB2YCbCr.c   **** {
 3271              		.loc 1 377 1
 3272              		.cfi_startproc
 3273              	.LVL157:
 378:RGB2YCbCr.c   ****     double start_t, end_t;
 3274              		.loc 1 378 5
 379:RGB2YCbCr.c   ****     const int height = image_in->height;
 3275              		.loc 1 379 5
 377:RGB2YCbCr.c   ****     double start_t, end_t;
 3276              		.loc 1 377 1 is_stmt 0
 3277 2410 4155     		pushq	%r13
 3278              		.cfi_def_cfa_offset 16
 3279              		.cfi_offset 13, -16
 3280 2412 4C8D6C24 		leaq	16(%rsp), %r13
 3280      10
 3281              		.cfi_def_cfa 13, 0
 3282 2417 4883E4E0 		andq	$-32, %rsp
 3283 241b 41FF75F8 		pushq	-8(%r13)
 3284 241f 55       		pushq	%rbp
 3285              		.cfi_escape 0x10,0x6,0x2,0x76,0
 3286 2420 4889E5   		movq	%rsp, %rbp
 3287 2423 4157     		pushq	%r15
 3288 2425 4156     		pushq	%r14
 3289 2427 4155     		pushq	%r13
 3290              		.cfi_escape 0xf,0x3,0x76,0x68,0x6
 3291              		.cfi_escape 0x10,0xf,0x2,0x76,0x78
 3292              		.cfi_escape 0x10,0xe,0x2,0x76,0x70
 3293 2429 4154     		pushq	%r12
 3294 242b 53       		pushq	%rbx
 3295 242c 4881EC88 		subq	$136, %rsp
 3295      000000
 3296              		.cfi_escape 0x10,0xc,0x2,0x76,0x60
 3297              		.cfi_escape 0x10,0x3,0x2,0x76,0x58
 380:RGB2YCbCr.c   ****     const int width =  image_in->width;
 381:RGB2YCbCr.c   ****     unsigned char *Rpixels, *Gpixels, *Bpixels, *Ypixels, *Cbpixels, *Crpixels;
 382:RGB2YCbCr.c   **** 
 383:RGB2YCbCr.c   ****     if (image_in->bytes_per_pixel != 3)
 3298              		.loc 1 383 8
 3299 2433 837F1003 		cmpl	$3, 16(%rdi)
 377:RGB2YCbCr.c   ****     double start_t, end_t;
 3300              		.loc 1 377 1
 3301 2437 48897D80 		movq	%rdi, -128(%rbp)
 379:RGB2YCbCr.c   ****     const int width =  image_in->width;
 3302              		.loc 1 379 15
 3303 243b 448B7F0C 		movl	12(%rdi), %r15d
 3304              	.LVL158:
 380:RGB2YCbCr.c   ****     const int width =  image_in->width;
 3305              		.loc 1 380 5 is_stmt 1
 380:RGB2YCbCr.c   ****     const int width =  image_in->width;
 3306              		.loc 1 380 15 is_stmt 0
 3307 243f 8B4708   		movl	8(%rdi), %eax
 3308              	.LVL159:
 381:RGB2YCbCr.c   **** 
 3309              		.loc 1 381 5 is_stmt 1
 3310              		.loc 1 383 5
 3311              		.loc 1 383 8 is_stmt 0
 3312 2442 0F85E008 		jne	.L106
 3312      0000
 384:RGB2YCbCr.c   ****     {
 385:RGB2YCbCr.c   ****         printf("ERROR: input image has to be RGB\n");
 386:RGB2YCbCr.c   ****         exit(-1);
 387:RGB2YCbCr.c   ****     }
 388:RGB2YCbCr.c   ****     
 389:RGB2YCbCr.c   ****     /* fill struct fields */
 390:RGB2YCbCr.c   ****     image_out->width  = width;
 3313              		.loc 1 390 5 is_stmt 1
 391:RGB2YCbCr.c   ****     image_out->height = height;
 392:RGB2YCbCr.c   ****     image_out->bytes_per_pixel = 3;
 3314              		.loc 1 392 32 is_stmt 0
 3315 2448 48BF0300 		movabsq	$12884901891, %rdi
 3315      00000300 
 3315      0000
 3316              	.LVL160:
 391:RGB2YCbCr.c   ****     image_out->height = height;
 3317              		.loc 1 391 23
 3318 2452 44897E0C 		movl	%r15d, 12(%rsi)
 393:RGB2YCbCr.c   ****     image_out->color_space = JCS_YCbCr;
 394:RGB2YCbCr.c   **** 
 395:RGB2YCbCr.c   ****     /* transform data layout */
 396:RGB2YCbCr.c   ****     Rpixels = (unsigned char *) aligned_alloc(SIMD_ALIGN, 3*width*height);
 3319              		.loc 1 396 66
 3320 2456 440FAFF8 		imull	%eax, %r15d
 3321              	.LVL161:
 392:RGB2YCbCr.c   ****     image_out->color_space = JCS_YCbCr;
 3322              		.loc 1 392 32
 3323 245a 48897E10 		movq	%rdi, 16(%rsi)
 3324              		.loc 1 396 33
 3325 245e BF200000 		movl	$32, %edi
 3325      00
 390:RGB2YCbCr.c   ****     image_out->height = height;
 3326              		.loc 1 390 23
 3327 2463 894608   		movl	%eax, 8(%rsi)
 391:RGB2YCbCr.c   ****     image_out->bytes_per_pixel = 3;
 3328              		.loc 1 391 5 is_stmt 1
 392:RGB2YCbCr.c   ****     image_out->color_space = JCS_YCbCr;
 3329              		.loc 1 392 5
 393:RGB2YCbCr.c   **** 
 3330              		.loc 1 393 5
 3331              		.loc 1 396 66 is_stmt 0
 3332 2466 438D1C3F 		leal	(%r15,%r15), %ebx
 392:RGB2YCbCr.c   ****     image_out->color_space = JCS_YCbCr;
 3333              		.loc 1 392 32
 3334 246a 48897598 		movq	%rsi, -104(%rbp)
 3335              		.loc 1 396 5 is_stmt 1
 3336              		.loc 1 396 66 is_stmt 0
 3337 246e 468D2C3B 		leal	(%rbx,%r15), %r13d
 3338              		.loc 1 396 33
 3339 2472 4D63ED   		movslq	%r13d, %r13
 3340 2475 4C89EE   		movq	%r13, %rsi
 3341              	.LVL162:
 3342 2478 E8000000 		call	aligned_alloc
 3342      00
 3343              	.LVL163:
 397:RGB2YCbCr.c   ****     Gpixels = Rpixels + 1*width*height;
 398:RGB2YCbCr.c   ****     Bpixels = Rpixels + 2*width*height;
 3344              		.loc 1 398 32
 3345 247d 4863D3   		movslq	%ebx, %rdx
 397:RGB2YCbCr.c   ****     Gpixels = Rpixels + 1*width*height;
 3346              		.loc 1 397 32
 3347 2480 4D63C7   		movslq	%r15d, %r8
 399:RGB2YCbCr.c   **** 
 400:RGB2YCbCr.c   ****     Ypixels = (unsigned char *) aligned_alloc(SIMD_ALIGN, 3*width*height);
 3348              		.loc 1 400 33
 3349 2483 4C89EE   		movq	%r13, %rsi
 398:RGB2YCbCr.c   **** 
 3350              		.loc 1 398 13
 3351 2486 488D0C10 		leaq	(%rax,%rdx), %rcx
 3352              		.loc 1 400 33
 3353 248a BF200000 		movl	$32, %edi
 3353      00
 397:RGB2YCbCr.c   ****     Gpixels = Rpixels + 1*width*height;
 3354              		.loc 1 397 13
 3355 248f 4C8945A0 		movq	%r8, -96(%rbp)
 396:RGB2YCbCr.c   ****     Gpixels = Rpixels + 1*width*height;
 3356              		.loc 1 396 33
 3357 2493 4989C4   		movq	%rax, %r12
 3358              	.LVL164:
 397:RGB2YCbCr.c   ****     Bpixels = Rpixels + 2*width*height;
 3359              		.loc 1 397 5 is_stmt 1
 398:RGB2YCbCr.c   **** 
 3360              		.loc 1 398 13 is_stmt 0
 3361 2496 488955A8 		movq	%rdx, -88(%rbp)
 397:RGB2YCbCr.c   ****     Bpixels = Rpixels + 2*width*height;
 3362              		.loc 1 397 13
 3363 249a 4E8D3400 		leaq	(%rax,%r8), %r14
 3364              	.LVL165:
 398:RGB2YCbCr.c   **** 
 3365              		.loc 1 398 5 is_stmt 1
 398:RGB2YCbCr.c   **** 
 3366              		.loc 1 398 13 is_stmt 0
 3367 249e 48894DB0 		movq	%rcx, -80(%rbp)
 3368              	.LVL166:
 3369              		.loc 1 400 5 is_stmt 1
 3370              		.loc 1 400 33 is_stmt 0
 3371 24a2 E8000000 		call	aligned_alloc
 3371      00
 3372              	.LVL167:
 401:RGB2YCbCr.c   ****     Cbpixels = Ypixels + 1*width*height;
 402:RGB2YCbCr.c   ****     Crpixels = Ypixels + 2*width*height;
 3373              		.loc 1 402 14
 3374 24a7 488B55A8 		movq	-88(%rbp), %rdx
 401:RGB2YCbCr.c   ****     Cbpixels = Ypixels + 1*width*height;
 3375              		.loc 1 401 14
 3376 24ab 4C8B45A0 		movq	-96(%rbp), %r8
 3377              	.LBB44:
 403:RGB2YCbCr.c   **** 
 404:RGB2YCbCr.c   ****     /* transformaci√≥n AoS -> SoA */
 405:RGB2YCbCr.c   ****     /* COMPLETAR ... */
 406:RGB2YCbCr.c   ****     #pragma GCC ivdep
 407:RGB2YCbCr.c   ****     for (int i = 0; i < height*width; i++)
 3378              		.loc 1 407 5
 3379 24af 488B4DB0 		movq	-80(%rbp), %rcx
 3380 24b3 4C8B5D98 		movq	-104(%rbp), %r11
 3381              	.LBE44:
 400:RGB2YCbCr.c   ****     Cbpixels = Ypixels + 1*width*height;
 3382              		.loc 1 400 33
 3383 24b7 4989C5   		movq	%rax, %r13
 3384              	.LVL168:
 401:RGB2YCbCr.c   ****     Cbpixels = Ypixels + 1*width*height;
 3385              		.loc 1 401 5 is_stmt 1
 402:RGB2YCbCr.c   **** 
 3386              		.loc 1 402 14 is_stmt 0
 3387 24ba 4801C2   		addq	%rax, %rdx
 3388              	.LBB45:
 3389              		.loc 1 407 5
 3390 24bd 4585FF   		testl	%r15d, %r15d
 3391              	.LBE45:
 401:RGB2YCbCr.c   ****     Crpixels = Ypixels + 2*width*height;
 3392              		.loc 1 401 14
 3393 24c0 4A8D1C00 		leaq	(%rax,%r8), %rbx
 3394              	.LVL169:
 402:RGB2YCbCr.c   **** 
 3395              		.loc 1 402 5 is_stmt 1
 3396              	.LBB46:
 3397              		.loc 1 407 10
 3398              		.loc 1 407 21
 3399              		.loc 1 407 5 is_stmt 0
 3400 24c4 0F8E4008 		jle	.L107
 3400      0000
 408:RGB2YCbCr.c   ****     {
 409:RGB2YCbCr.c   ****         Rpixels[i] = image_in->pixels[3*i + 0];
 3401              		.loc 1 409 9
 3402 24ca 488B4580 		movq	-128(%rbp), %rax
 3403              	.LVL170:
 3404 24ce 4C8B10   		movq	(%rax), %r10
 3405 24d1 418D47FF 		leal	-1(%r15), %eax
 3406 24d5 898578FF 		movl	%eax, -136(%rbp)
 3406      FFFF
 3407 24db 83F81E   		cmpl	$30, %eax
 3408 24de 0F863508 		jbe	.L95
 3408      0000
 3409 24e4 4589F9   		movl	%r15d, %r9d
 3410 24e7 C57D6F2D 		vmovdqa	.LC13(%rip), %ymm13
 3410      00000000 
 3411 24ef C57D6F25 		vmovdqa	.LC14(%rip), %ymm12
 3411      00000000 
 3412 24f7 4C89D0   		movq	%r10, %rax
 3413 24fa 41C1E905 		shrl	$5, %r9d
 3414 24fe C57D6F1D 		vmovdqa	.LC15(%rip), %ymm11
 3414      00000000 
 3415 2506 C57D6F15 		vmovdqa	.LC16(%rip), %ymm10
 3415      00000000 
 3416 250e 4C89E6   		movq	%r12, %rsi
 3417 2511 49C1E105 		salq	$5, %r9
 3418 2515 C57D6F0D 		vmovdqa	.LC17(%rip), %ymm9
 3418      00000000 
 3419 251d C57D6F05 		vmovdqa	.LC18(%rip), %ymm8
 3419      00000000 
 3420 2525 4D89F0   		movq	%r14, %r8
 3421 2528 C5FD6F3D 		vmovdqa	.LC19(%rip), %ymm7
 3421      00000000 
 3422 2530 4889CF   		movq	%rcx, %rdi
 3423 2533 4D01E1   		addq	%r12, %r9
 3424 2536 C5FD6F35 		vmovdqa	.LC20(%rip), %ymm6
 3424      00000000 
 3425 253e C5FD6F2D 		vmovdqa	.LC21(%rip), %ymm5
 3425      00000000 
 3426 2546 C5FD6F25 		vmovdqa	.LC23(%rip), %ymm4
 3426      00000000 
 3427              	.LVL171:
 3428 254e 6690     		.p2align 4,,10
 3429              		.p2align 3
 3430              	.L82:
 3431              		.loc 1 409 9 is_stmt 1 discriminator 3
 3432              		.loc 1 409 38 is_stmt 0 discriminator 3
 3433 2550 C5FE6F00 		vmovdqu	(%rax), %ymm0
 3434 2554 4883C620 		addq	$32, %rsi
 3435 2558 4883C060 		addq	$96, %rax
 3436 255c 4983C020 		addq	$32, %r8
 3437 2560 C5FE6F50 		vmovdqu	-64(%rax), %ymm2
 3437      C0
 3438 2565 C5FE6F48 		vmovdqu	-32(%rax), %ymm1
 3438      E0
 3439 256a 4883C720 		addq	$32, %rdi
 3440 256e C4C27D00 		vpshufb	%ymm13, %ymm0, %ymm3
 3440      DD
 3441 2573 C463FD00 		vpermq	$78, %ymm3, %ymm15
 3441      FB4E
 3442 2579 C4C27D00 		vpshufb	%ymm12, %ymm0, %ymm3
 3442      DC
 3443 257e C4426D00 		vpshufb	%ymm11, %ymm2, %ymm14
 3443      F3
 3444 2583 C4C165EB 		vpor	%ymm15, %ymm3, %ymm3
 3444      DF
 3445 2588 C4427500 		vpshufb	%ymm8, %ymm1, %ymm15
 3445      F8
 3446 258d C4C165EB 		vpor	%ymm14, %ymm3, %ymm3
 3446      DE
 3447 2592 C4427500 		vpshufb	%ymm10, %ymm1, %ymm14
 3447      F2
 3448 2597 C443FD00 		vpermq	$78, %ymm14, %ymm14
 3448      F64E
 3449 259d C4C26500 		vpshufb	%ymm9, %ymm3, %ymm3
 3449      D9
 3450 25a2 C44105EB 		vpor	%ymm14, %ymm15, %ymm14
 3450      F6
 3451 25a7 C4C165EB 		vpor	%ymm14, %ymm3, %ymm3
 3451      DE
 3452 25ac C4626D00 		vpshufb	%ymm5, %ymm2, %ymm14
 3452      F5
 3453 25b1 C4E26D00 		vpshufb	.LC27(%rip), %ymm2, %ymm2
 3453      15000000 
 3453      00
 3454              		.loc 1 409 20 discriminator 3
 3455 25ba C5FD7F5E 		vmovdqa	%ymm3, -32(%rsi)
 3455      E0
 410:RGB2YCbCr.c   ****         Gpixels[i] = image_in->pixels[3*i + 1];
 3456              		.loc 1 410 9 is_stmt 1 discriminator 3
 409:RGB2YCbCr.c   ****         Gpixels[i] = image_in->pixels[3*i + 1];
 3457              		.loc 1 409 38 is_stmt 0 discriminator 3
 3458 25bf C4E27D00 		vpshufb	%ymm7, %ymm0, %ymm3
 3458      DF
 3459 25c4 C463FD00 		vpermq	$78, %ymm3, %ymm15
 3459      FB4E
 3460 25ca C4E27D00 		vpshufb	%ymm6, %ymm0, %ymm3
 3460      DE
 3461 25cf C4C165EB 		vpor	%ymm15, %ymm3, %ymm3
 3461      DF
 3462 25d4 C4627500 		vpshufb	.LC24(%rip), %ymm1, %ymm15
 3462      3D000000 
 3462      00
 3463 25dd C4C165EB 		vpor	%ymm14, %ymm3, %ymm3
 3463      DE
 3464 25e2 C4627500 		vpshufb	.LC22(%rip), %ymm1, %ymm14
 3464      35000000 
 3464      00
 3465 25eb C443FD00 		vpermq	$78, %ymm14, %ymm14
 3465      F64E
 3466 25f1 C4E26500 		vpshufb	%ymm4, %ymm3, %ymm3
 3466      DC
 3467 25f6 C44105EB 		vpor	%ymm14, %ymm15, %ymm14
 3467      F6
 3468 25fb C4C165EB 		vpor	%ymm14, %ymm3, %ymm3
 3468      DE
 3469              		.loc 1 410 20 discriminator 3
 3470 2600 C4C17E7F 		vmovdqu	%ymm3, -32(%r8)
 3470      58E0
 411:RGB2YCbCr.c   ****         Bpixels[i] = image_in->pixels[3*i + 2];
 3471              		.loc 1 411 9 is_stmt 1 discriminator 3
 409:RGB2YCbCr.c   ****         Gpixels[i] = image_in->pixels[3*i + 1];
 3472              		.loc 1 409 38 is_stmt 0 discriminator 3
 3473 2606 C4E27D00 		vpshufb	.LC25(%rip), %ymm0, %ymm3
 3473      1D000000 
 3473      00
 3474 260f C4E27D00 		vpshufb	.LC26(%rip), %ymm0, %ymm0
 3474      05000000 
 3474      00
 3475 2618 C4E3FD00 		vpermq	$78, %ymm3, %ymm3
 3475      DB4E
 3476 261e C5FDEBC3 		vpor	%ymm3, %ymm0, %ymm0
 3477 2622 C5FDEBC2 		vpor	%ymm2, %ymm0, %ymm0
 3478 2626 C4E27500 		vpshufb	.LC28(%rip), %ymm1, %ymm2
 3478      15000000 
 3478      00
 3479 262f C4E27500 		vpshufb	.LC29(%rip), %ymm1, %ymm1
 3479      0D000000 
 3479      00
 3480 2638 C4E3FD00 		vpermq	$78, %ymm2, %ymm2
 3480      D24E
 3481 263e C4E27D00 		vpshufb	%ymm4, %ymm0, %ymm0
 3481      C4
 3482 2643 C5F5EBCA 		vpor	%ymm2, %ymm1, %ymm1
 3483 2647 C5FDEBC1 		vpor	%ymm1, %ymm0, %ymm0
 3484              		.loc 1 411 20 discriminator 3
 3485 264b C5FE7F47 		vmovdqu	%ymm0, -32(%rdi)
 3485      E0
 407:RGB2YCbCr.c   ****     {
 3486              		.loc 1 407 39 is_stmt 1 discriminator 3
 407:RGB2YCbCr.c   ****     {
 3487              		.loc 1 407 21 discriminator 3
 3488 2650 4C39CE   		cmpq	%r9, %rsi
 3489 2653 0F85F7FE 		jne	.L82
 3489      FFFF
 3490 2659 4489FE   		movl	%r15d, %esi
 3491 265c 83E6E0   		andl	$-32, %esi
 3492 265f 41F6C71F 		testb	$31, %r15b
 3493 2663 0F84B706 		je	.L108
 3493      0000
 3494 2669 C5F877   		vzeroupper
 3495              	.L81:
 3496 266c 4863C6   		movslq	%esi, %rax
 3497 266f 8D3476   		leal	(%rsi,%rsi,2), %esi
 3498 2672 4863F6   		movslq	%esi, %rsi
 3499 2675 4901F2   		addq	%rsi, %r10
 3500 2678 0F1F8400 		.p2align 4,,10
 3500      00000000 
 3501              		.p2align 3
 3502              	.L84:
 3503              	.LVL172:
 409:RGB2YCbCr.c   ****         Gpixels[i] = image_in->pixels[3*i + 1];
 3504              		.loc 1 409 9
 409:RGB2YCbCr.c   ****         Gpixels[i] = image_in->pixels[3*i + 1];
 3505              		.loc 1 409 20 is_stmt 0
 3506 2680 410FB632 		movzbl	(%r10), %esi
 3507 2684 4983C203 		addq	$3, %r10
 3508 2688 41883404 		movb	%sil, (%r12,%rax)
 410:RGB2YCbCr.c   ****         Bpixels[i] = image_in->pixels[3*i + 2];
 3509              		.loc 1 410 9 is_stmt 1
 410:RGB2YCbCr.c   ****         Bpixels[i] = image_in->pixels[3*i + 2];
 3510              		.loc 1 410 20 is_stmt 0
 3511 268c 410FB672 		movzbl	-2(%r10), %esi
 3511      FE
 3512 2691 41883406 		movb	%sil, (%r14,%rax)
 3513              		.loc 1 411 9 is_stmt 1
 3514              		.loc 1 411 20 is_stmt 0
 3515 2695 410FB672 		movzbl	-1(%r10), %esi
 3515      FF
 3516 269a 40883401 		movb	%sil, (%rcx,%rax)
 407:RGB2YCbCr.c   ****     {
 3517              		.loc 1 407 39 is_stmt 1
 3518              	.LVL173:
 407:RGB2YCbCr.c   ****     {
